
bomb:     file format elf32-i386


Disassembly of section .init:

00001000 <_init>:
    1000:	f3 0f 1e fb          	endbr32 
    1004:	53                   	push   %ebx
    1005:	83 ec 08             	sub    $0x8,%esp
    1008:	e8 63 02 00 00       	call   1270 <__x86.get_pc_thunk.bx>
    100d:	81 c3 47 4f 00 00    	add    $0x4f47,%ebx
    1013:	8b 83 94 00 00 00    	mov    0x94(%ebx),%eax
    1019:	85 c0                	test   %eax,%eax
    101b:	74 02                	je     101f <_init+0x1f>
    101d:	ff d0                	call   *%eax
    101f:	83 c4 08             	add    $0x8,%esp
    1022:	5b                   	pop    %ebx
    1023:	c3                   	ret    

Disassembly of section .plt:

00001030 <strcmp@plt-0x10>:
    1030:	ff b3 04 00 00 00    	push   0x4(%ebx)
    1036:	ff a3 08 00 00 00    	jmp    *0x8(%ebx)
    103c:	00 00                	add    %al,(%eax)
	...

00001040 <strcmp@plt>:
    1040:	ff a3 0c 00 00 00    	jmp    *0xc(%ebx)
    1046:	68 00 00 00 00       	push   $0x0
    104b:	e9 e0 ff ff ff       	jmp    1030 <_init+0x30>

00001050 <__libc_start_main@plt>:
    1050:	ff a3 10 00 00 00    	jmp    *0x10(%ebx)
    1056:	68 08 00 00 00       	push   $0x8
    105b:	e9 d0 ff ff ff       	jmp    1030 <_init+0x30>

00001060 <read@plt>:
    1060:	ff a3 14 00 00 00    	jmp    *0x14(%ebx)
    1066:	68 10 00 00 00       	push   $0x10
    106b:	e9 c0 ff ff ff       	jmp    1030 <_init+0x30>

00001070 <fflush@plt>:
    1070:	ff a3 18 00 00 00    	jmp    *0x18(%ebx)
    1076:	68 18 00 00 00       	push   $0x18
    107b:	e9 b0 ff ff ff       	jmp    1030 <_init+0x30>

00001080 <fgets@plt>:
    1080:	ff a3 1c 00 00 00    	jmp    *0x1c(%ebx)
    1086:	68 20 00 00 00       	push   $0x20
    108b:	e9 a0 ff ff ff       	jmp    1030 <_init+0x30>

00001090 <signal@plt>:
    1090:	ff a3 20 00 00 00    	jmp    *0x20(%ebx)
    1096:	68 28 00 00 00       	push   $0x28
    109b:	e9 90 ff ff ff       	jmp    1030 <_init+0x30>

000010a0 <sleep@plt>:
    10a0:	ff a3 24 00 00 00    	jmp    *0x24(%ebx)
    10a6:	68 30 00 00 00       	push   $0x30
    10ab:	e9 80 ff ff ff       	jmp    1030 <_init+0x30>

000010b0 <alarm@plt>:
    10b0:	ff a3 28 00 00 00    	jmp    *0x28(%ebx)
    10b6:	68 38 00 00 00       	push   $0x38
    10bb:	e9 70 ff ff ff       	jmp    1030 <_init+0x30>

000010c0 <__stack_chk_fail@plt>:
    10c0:	ff a3 2c 00 00 00    	jmp    *0x2c(%ebx)
    10c6:	68 40 00 00 00       	push   $0x40
    10cb:	e9 60 ff ff ff       	jmp    1030 <_init+0x30>

000010d0 <strcpy@plt>:
    10d0:	ff a3 30 00 00 00    	jmp    *0x30(%ebx)
    10d6:	68 48 00 00 00       	push   $0x48
    10db:	e9 50 ff ff ff       	jmp    1030 <_init+0x30>

000010e0 <gethostname@plt>:
    10e0:	ff a3 34 00 00 00    	jmp    *0x34(%ebx)
    10e6:	68 50 00 00 00       	push   $0x50
    10eb:	e9 40 ff ff ff       	jmp    1030 <_init+0x30>

000010f0 <getenv@plt>:
    10f0:	ff a3 38 00 00 00    	jmp    *0x38(%ebx)
    10f6:	68 58 00 00 00       	push   $0x58
    10fb:	e9 30 ff ff ff       	jmp    1030 <_init+0x30>

00001100 <malloc@plt>:
    1100:	ff a3 3c 00 00 00    	jmp    *0x3c(%ebx)
    1106:	68 60 00 00 00       	push   $0x60
    110b:	e9 20 ff ff ff       	jmp    1030 <_init+0x30>

00001110 <puts@plt>:
    1110:	ff a3 40 00 00 00    	jmp    *0x40(%ebx)
    1116:	68 68 00 00 00       	push   $0x68
    111b:	e9 10 ff ff ff       	jmp    1030 <_init+0x30>

00001120 <__memmove_chk@plt>:
    1120:	ff a3 44 00 00 00    	jmp    *0x44(%ebx)
    1126:	68 70 00 00 00       	push   $0x70
    112b:	e9 00 ff ff ff       	jmp    1030 <_init+0x30>

00001130 <exit@plt>:
    1130:	ff a3 48 00 00 00    	jmp    *0x48(%ebx)
    1136:	68 78 00 00 00       	push   $0x78
    113b:	e9 f0 fe ff ff       	jmp    1030 <_init+0x30>

00001140 <strlen@plt>:
    1140:	ff a3 4c 00 00 00    	jmp    *0x4c(%ebx)
    1146:	68 80 00 00 00       	push   $0x80
    114b:	e9 e0 fe ff ff       	jmp    1030 <_init+0x30>

00001150 <write@plt>:
    1150:	ff a3 50 00 00 00    	jmp    *0x50(%ebx)
    1156:	68 88 00 00 00       	push   $0x88
    115b:	e9 d0 fe ff ff       	jmp    1030 <_init+0x30>

00001160 <strcasecmp@plt>:
    1160:	ff a3 54 00 00 00    	jmp    *0x54(%ebx)
    1166:	68 90 00 00 00       	push   $0x90
    116b:	e9 c0 fe ff ff       	jmp    1030 <_init+0x30>

00001170 <__isoc99_sscanf@plt>:
    1170:	ff a3 58 00 00 00    	jmp    *0x58(%ebx)
    1176:	68 98 00 00 00       	push   $0x98
    117b:	e9 b0 fe ff ff       	jmp    1030 <_init+0x30>

00001180 <fopen@plt>:
    1180:	ff a3 5c 00 00 00    	jmp    *0x5c(%ebx)
    1186:	68 a0 00 00 00       	push   $0xa0
    118b:	e9 a0 fe ff ff       	jmp    1030 <_init+0x30>

00001190 <__errno_location@plt>:
    1190:	ff a3 60 00 00 00    	jmp    *0x60(%ebx)
    1196:	68 a8 00 00 00       	push   $0xa8
    119b:	e9 90 fe ff ff       	jmp    1030 <_init+0x30>

000011a0 <__printf_chk@plt>:
    11a0:	ff a3 64 00 00 00    	jmp    *0x64(%ebx)
    11a6:	68 b0 00 00 00       	push   $0xb0
    11ab:	e9 80 fe ff ff       	jmp    1030 <_init+0x30>

000011b0 <socket@plt>:
    11b0:	ff a3 68 00 00 00    	jmp    *0x68(%ebx)
    11b6:	68 b8 00 00 00       	push   $0xb8
    11bb:	e9 70 fe ff ff       	jmp    1030 <_init+0x30>

000011c0 <__fprintf_chk@plt>:
    11c0:	ff a3 6c 00 00 00    	jmp    *0x6c(%ebx)
    11c6:	68 c0 00 00 00       	push   $0xc0
    11cb:	e9 60 fe ff ff       	jmp    1030 <_init+0x30>

000011d0 <gethostbyname@plt>:
    11d0:	ff a3 70 00 00 00    	jmp    *0x70(%ebx)
    11d6:	68 c8 00 00 00       	push   $0xc8
    11db:	e9 50 fe ff ff       	jmp    1030 <_init+0x30>

000011e0 <strtol@plt>:
    11e0:	ff a3 74 00 00 00    	jmp    *0x74(%ebx)
    11e6:	68 d0 00 00 00       	push   $0xd0
    11eb:	e9 40 fe ff ff       	jmp    1030 <_init+0x30>

000011f0 <connect@plt>:
    11f0:	ff a3 78 00 00 00    	jmp    *0x78(%ebx)
    11f6:	68 d8 00 00 00       	push   $0xd8
    11fb:	e9 30 fe ff ff       	jmp    1030 <_init+0x30>

00001200 <close@plt>:
    1200:	ff a3 7c 00 00 00    	jmp    *0x7c(%ebx)
    1206:	68 e0 00 00 00       	push   $0xe0
    120b:	e9 20 fe ff ff       	jmp    1030 <_init+0x30>

00001210 <__ctype_b_loc@plt>:
    1210:	ff a3 80 00 00 00    	jmp    *0x80(%ebx)
    1216:	68 e8 00 00 00       	push   $0xe8
    121b:	e9 10 fe ff ff       	jmp    1030 <_init+0x30>

00001220 <__sprintf_chk@plt>:
    1220:	ff a3 84 00 00 00    	jmp    *0x84(%ebx)
    1226:	68 f0 00 00 00       	push   $0xf0
    122b:	e9 00 fe ff ff       	jmp    1030 <_init+0x30>

Disassembly of section .plt.got:

00001230 <__cxa_finalize@plt>:
    1230:	ff a3 90 00 00 00    	jmp    *0x90(%ebx)
    1236:	66 90                	xchg   %ax,%ax

Disassembly of section .text:

00001240 <_start>:
    1240:	f3 0f 1e fb          	endbr32 
    1244:	31 ed                	xor    %ebp,%ebp
    1246:	5e                   	pop    %esi
    1247:	89 e1                	mov    %esp,%ecx
    1249:	83 e4 f0             	and    $0xfffffff0,%esp
    124c:	50                   	push   %eax
    124d:	54                   	push   %esp
    124e:	52                   	push   %edx
    124f:	e8 18 00 00 00       	call   126c <_start+0x2c>
    1254:	81 c3 00 4d 00 00    	add    $0x4d00,%ebx
    125a:	6a 00                	push   $0x0
    125c:	6a 00                	push   $0x0
    125e:	51                   	push   %ecx
    125f:	56                   	push   %esi
    1260:	ff b3 a4 00 00 00    	push   0xa4(%ebx)
    1266:	e8 e5 fd ff ff       	call   1050 <__libc_start_main@plt>
    126b:	f4                   	hlt    
    126c:	8b 1c 24             	mov    (%esp),%ebx
    126f:	c3                   	ret    

00001270 <__x86.get_pc_thunk.bx>:
    1270:	8b 1c 24             	mov    (%esp),%ebx
    1273:	c3                   	ret    
    1274:	66 90                	xchg   %ax,%ax
    1276:	66 90                	xchg   %ax,%ax
    1278:	66 90                	xchg   %ax,%ax
    127a:	66 90                	xchg   %ax,%ax
    127c:	66 90                	xchg   %ax,%ax
    127e:	66 90                	xchg   %ax,%ax

00001280 <deregister_tm_clones>:
    1280:	e8 e4 00 00 00       	call   1369 <__x86.get_pc_thunk.dx>
    1285:	81 c2 cf 4c 00 00    	add    $0x4ccf,%edx
    128b:	8d 8a ec 07 00 00    	lea    0x7ec(%edx),%ecx
    1291:	8d 82 ec 07 00 00    	lea    0x7ec(%edx),%eax
    1297:	39 c8                	cmp    %ecx,%eax
    1299:	74 1d                	je     12b8 <deregister_tm_clones+0x38>
    129b:	8b 82 88 00 00 00    	mov    0x88(%edx),%eax
    12a1:	85 c0                	test   %eax,%eax
    12a3:	74 13                	je     12b8 <deregister_tm_clones+0x38>
    12a5:	55                   	push   %ebp
    12a6:	89 e5                	mov    %esp,%ebp
    12a8:	83 ec 14             	sub    $0x14,%esp
    12ab:	51                   	push   %ecx
    12ac:	ff d0                	call   *%eax
    12ae:	83 c4 10             	add    $0x10,%esp
    12b1:	c9                   	leave  
    12b2:	c3                   	ret    
    12b3:	8d 74 26 00          	lea    0x0(%esi,%eiz,1),%esi
    12b7:	90                   	nop
    12b8:	c3                   	ret    
    12b9:	8d b4 26 00 00 00 00 	lea    0x0(%esi,%eiz,1),%esi

000012c0 <register_tm_clones>:
    12c0:	e8 a4 00 00 00       	call   1369 <__x86.get_pc_thunk.dx>
    12c5:	81 c2 8f 4c 00 00    	add    $0x4c8f,%edx
    12cb:	55                   	push   %ebp
    12cc:	89 e5                	mov    %esp,%ebp
    12ce:	53                   	push   %ebx
    12cf:	8d 8a ec 07 00 00    	lea    0x7ec(%edx),%ecx
    12d5:	8d 82 ec 07 00 00    	lea    0x7ec(%edx),%eax
    12db:	83 ec 04             	sub    $0x4,%esp
    12de:	29 c8                	sub    %ecx,%eax
    12e0:	89 c3                	mov    %eax,%ebx
    12e2:	c1 e8 1f             	shr    $0x1f,%eax
    12e5:	c1 fb 02             	sar    $0x2,%ebx
    12e8:	01 d8                	add    %ebx,%eax
    12ea:	d1 f8                	sar    %eax
    12ec:	74 14                	je     1302 <register_tm_clones+0x42>
    12ee:	8b 92 a8 00 00 00    	mov    0xa8(%edx),%edx
    12f4:	85 d2                	test   %edx,%edx
    12f6:	74 0a                	je     1302 <register_tm_clones+0x42>
    12f8:	83 ec 08             	sub    $0x8,%esp
    12fb:	50                   	push   %eax
    12fc:	51                   	push   %ecx
    12fd:	ff d2                	call   *%edx
    12ff:	83 c4 10             	add    $0x10,%esp
    1302:	8b 5d fc             	mov    -0x4(%ebp),%ebx
    1305:	c9                   	leave  
    1306:	c3                   	ret    
    1307:	8d b4 26 00 00 00 00 	lea    0x0(%esi,%eiz,1),%esi
    130e:	66 90                	xchg   %ax,%ax

00001310 <__do_global_dtors_aux>:
    1310:	f3 0f 1e fb          	endbr32 
    1314:	55                   	push   %ebp
    1315:	89 e5                	mov    %esp,%ebp
    1317:	53                   	push   %ebx
    1318:	e8 53 ff ff ff       	call   1270 <__x86.get_pc_thunk.bx>
    131d:	81 c3 37 4c 00 00    	add    $0x4c37,%ebx
    1323:	83 ec 04             	sub    $0x4,%esp
    1326:	80 bb ec 07 00 00 00 	cmpb   $0x0,0x7ec(%ebx)
    132d:	75 27                	jne    1356 <__do_global_dtors_aux+0x46>
    132f:	8b 83 90 00 00 00    	mov    0x90(%ebx),%eax
    1335:	85 c0                	test   %eax,%eax
    1337:	74 11                	je     134a <__do_global_dtors_aux+0x3a>
    1339:	83 ec 0c             	sub    $0xc,%esp
    133c:	ff b3 b0 00 00 00    	push   0xb0(%ebx)
    1342:	e8 e9 fe ff ff       	call   1230 <__cxa_finalize@plt>
    1347:	83 c4 10             	add    $0x10,%esp
    134a:	e8 31 ff ff ff       	call   1280 <deregister_tm_clones>
    134f:	c6 83 ec 07 00 00 01 	movb   $0x1,0x7ec(%ebx)
    1356:	8b 5d fc             	mov    -0x4(%ebp),%ebx
    1359:	c9                   	leave  
    135a:	c3                   	ret    
    135b:	8d 74 26 00          	lea    0x0(%esi,%eiz,1),%esi
    135f:	90                   	nop

00001360 <frame_dummy>:
    1360:	f3 0f 1e fb          	endbr32 
    1364:	e9 57 ff ff ff       	jmp    12c0 <register_tm_clones>

00001369 <__x86.get_pc_thunk.dx>:
    1369:	8b 14 24             	mov    (%esp),%edx
    136c:	c3                   	ret    

0000136d <main>:
    136d:	8d 4c 24 04          	lea    0x4(%esp),%ecx
    1371:	83 e4 f0             	and    $0xfffffff0,%esp
    1374:	ff 71 fc             	push   -0x4(%ecx)
    1377:	55                   	push   %ebp
    1378:	89 e5                	mov    %esp,%ebp
    137a:	56                   	push   %esi
    137b:	53                   	push   %ebx
    137c:	51                   	push   %ecx
    137d:	83 ec 0c             	sub    $0xc,%esp
    1380:	e8 eb fe ff ff       	call   1270 <__x86.get_pc_thunk.bx>
    1385:	81 c3 cf 4b 00 00    	add    $0x4bcf,%ebx
    138b:	8b 01                	mov    (%ecx),%eax
    138d:	8b 71 04             	mov    0x4(%ecx),%esi
    1390:	83 f8 01             	cmp    $0x1,%eax
    1393:	0f 84 81 01 00 00    	je     151a <main+0x1ad>
    1399:	83 f8 02             	cmp    $0x2,%eax
    139c:	0f 85 aa 01 00 00    	jne    154c <main+0x1df>
    13a2:	83 ec 08             	sub    $0x8,%esp
    13a5:	8d 83 b4 d0 ff ff    	lea    -0x2f4c(%ebx),%eax
    13ab:	50                   	push   %eax
    13ac:	ff 76 04             	push   0x4(%esi)
    13af:	e8 cc fd ff ff       	call   1180 <fopen@plt>
    13b4:	89 83 f0 07 00 00    	mov    %eax,0x7f0(%ebx)
    13ba:	83 c4 10             	add    $0x10,%esp
    13bd:	85 c0                	test   %eax,%eax
    13bf:	0f 84 68 01 00 00    	je     152d <main+0x1c0>
    13c5:	e8 2f 08 00 00       	call   1bf9 <initialize_bomb>
    13ca:	83 ec 0c             	sub    $0xc,%esp
    13cd:	8d 83 44 d1 ff ff    	lea    -0x2ebc(%ebx),%eax
    13d3:	50                   	push   %eax
    13d4:	e8 37 fd ff ff       	call   1110 <puts@plt>
    13d9:	8d 83 80 d1 ff ff    	lea    -0x2e80(%ebx),%eax
    13df:	89 04 24             	mov    %eax,(%esp)
    13e2:	e8 29 fd ff ff       	call   1110 <puts@plt>
    13e7:	e8 32 0b 00 00       	call   1f1e <read_line>
    13ec:	89 04 24             	mov    %eax,(%esp)
    13ef:	e8 77 01 00 00       	call   156b <phase_1>
    13f4:	e8 44 0c 00 00       	call   203d <phase_defused>
    13f9:	8d 83 ac d1 ff ff    	lea    -0x2e54(%ebx),%eax
    13ff:	89 04 24             	mov    %eax,(%esp)
    1402:	e8 09 fd ff ff       	call   1110 <puts@plt>
    1407:	e8 12 0b 00 00       	call   1f1e <read_line>
    140c:	89 04 24             	mov    %eax,(%esp)
    140f:	e8 c6 01 00 00       	call   15da <phase_2>
    1414:	e8 24 0c 00 00       	call   203d <phase_defused>
    1419:	8d 83 ed d0 ff ff    	lea    -0x2f13(%ebx),%eax
    141f:	89 04 24             	mov    %eax,(%esp)
    1422:	e8 e9 fc ff ff       	call   1110 <puts@plt>
    1427:	e8 f2 0a 00 00       	call   1f1e <read_line>
    142c:	89 04 24             	mov    %eax,(%esp)
    142f:	e8 d8 01 00 00       	call   160c <phase_3>
    1434:	e8 04 0c 00 00       	call   203d <phase_defused>
    1439:	8d 83 0b d1 ff ff    	lea    -0x2ef5(%ebx),%eax
    143f:	89 04 24             	mov    %eax,(%esp)
    1442:	e8 c9 fc ff ff       	call   1110 <puts@plt>
    1447:	e8 d2 0a 00 00       	call   1f1e <read_line>
    144c:	89 04 24             	mov    %eax,(%esp)
    144f:	e8 39 02 00 00       	call   168d <phase_4>
    1454:	e8 e4 0b 00 00       	call   203d <phase_defused>
    1459:	8d 83 d8 d1 ff ff    	lea    -0x2e28(%ebx),%eax
    145f:	89 04 24             	mov    %eax,(%esp)
    1462:	e8 a9 fc ff ff       	call   1110 <puts@plt>
    1467:	e8 b2 0a 00 00       	call   1f1e <read_line>
    146c:	89 04 24             	mov    %eax,(%esp)
    146f:	e8 95 02 00 00       	call   1709 <phase_5>
    1474:	e8 c4 0b 00 00       	call   203d <phase_defused>
    1479:	8d 83 1c d1 ff ff    	lea    -0x2ee4(%ebx),%eax
    147f:	89 04 24             	mov    %eax,(%esp)
    1482:	e8 89 fc ff ff       	call   1110 <puts@plt>
    1487:	e8 92 0a 00 00       	call   1f1e <read_line>
    148c:	89 04 24             	mov    %eax,(%esp)
    148f:	e8 76 03 00 00       	call   180a <phase_6>
    1494:	e8 a4 0b 00 00       	call   203d <phase_defused>
    1499:	8d 83 fc d1 ff ff    	lea    -0x2e04(%ebx),%eax
    149f:	89 04 24             	mov    %eax,(%esp)
    14a2:	e8 69 fc ff ff       	call   1110 <puts@plt>
    14a7:	e8 72 0a 00 00       	call   1f1e <read_line>
    14ac:	89 04 24             	mov    %eax,(%esp)
    14af:	e8 d9 03 00 00       	call   188d <phase_7>
    14b4:	e8 84 0b 00 00       	call   203d <phase_defused>
    14b9:	8d 83 1c d2 ff ff    	lea    -0x2de4(%ebx),%eax
    14bf:	89 04 24             	mov    %eax,(%esp)
    14c2:	e8 49 fc ff ff       	call   1110 <puts@plt>
    14c7:	e8 52 0a 00 00       	call   1f1e <read_line>
    14cc:	89 04 24             	mov    %eax,(%esp)
    14cf:	e8 4f 04 00 00       	call   1923 <phase_8>
    14d4:	e8 64 0b 00 00       	call   203d <phase_defused>
    14d9:	8d 83 3a d1 ff ff    	lea    -0x2ec6(%ebx),%eax
    14df:	89 04 24             	mov    %eax,(%esp)
    14e2:	e8 29 fc ff ff       	call   1110 <puts@plt>
    14e7:	e8 32 0a 00 00       	call   1f1e <read_line>
    14ec:	89 04 24             	mov    %eax,(%esp)
    14ef:	e8 9c 05 00 00       	call   1a90 <phase_9>
    14f4:	e8 44 0b 00 00       	call   203d <phase_defused>
    14f9:	8d 83 3c d2 ff ff    	lea    -0x2dc4(%ebx),%eax
    14ff:	89 04 24             	mov    %eax,(%esp)
    1502:	e8 09 fc ff ff       	call   1110 <puts@plt>
    1507:	83 c4 10             	add    $0x10,%esp
    150a:	b8 00 00 00 00       	mov    $0x0,%eax
    150f:	8d 65 f4             	lea    -0xc(%ebp),%esp
    1512:	59                   	pop    %ecx
    1513:	5b                   	pop    %ebx
    1514:	5e                   	pop    %esi
    1515:	5d                   	pop    %ebp
    1516:	8d 61 fc             	lea    -0x4(%ecx),%esp
    1519:	c3                   	ret    
    151a:	8b 83 98 00 00 00    	mov    0x98(%ebx),%eax
    1520:	8b 00                	mov    (%eax),%eax
    1522:	89 83 f0 07 00 00    	mov    %eax,0x7f0(%ebx)
    1528:	e9 98 fe ff ff       	jmp    13c5 <main+0x58>
    152d:	ff 76 04             	push   0x4(%esi)
    1530:	ff 36                	push   (%esi)
    1532:	8d 83 b6 d0 ff ff    	lea    -0x2f4a(%ebx),%eax
    1538:	50                   	push   %eax
    1539:	6a 01                	push   $0x1
    153b:	e8 60 fc ff ff       	call   11a0 <__printf_chk@plt>
    1540:	c7 04 24 08 00 00 00 	movl   $0x8,(%esp)
    1547:	e8 e4 fb ff ff       	call   1130 <exit@plt>
    154c:	83 ec 04             	sub    $0x4,%esp
    154f:	ff 36                	push   (%esi)
    1551:	8d 83 d3 d0 ff ff    	lea    -0x2f2d(%ebx),%eax
    1557:	50                   	push   %eax
    1558:	6a 01                	push   $0x1
    155a:	e8 41 fc ff ff       	call   11a0 <__printf_chk@plt>
    155f:	c7 04 24 08 00 00 00 	movl   $0x8,(%esp)
    1566:	e8 c5 fb ff ff       	call   1130 <exit@plt>

0000156b <phase_1>:
    156b:	53                   	push   %ebx
    156c:	83 ec 1c             	sub    $0x1c,%esp
    156f:	e8 fc fc ff ff       	call   1270 <__x86.get_pc_thunk.bx>
    1574:	81 c3 e0 49 00 00    	add    $0x49e0,%ebx
    157a:	65 a1 14 00 00 00    	mov    %gs:0x14,%eax
    1580:	89 44 24 10          	mov    %eax,0x10(%esp)
    1584:	31 c0                	xor    %eax,%eax
    1586:	c7 44 24 0c 00 00 00 	movl   $0x0,0xc(%esp)
    158d:	00 
    158e:	8d 44 24 0c          	lea    0xc(%esp),%eax
    1592:	50                   	push   %eax
    1593:	8d 83 a4 d4 ff ff    	lea    -0x2b5c(%ebx),%eax
    1599:	50                   	push   %eax
    159a:	ff 74 24 2c          	push   0x2c(%esp)
    159e:	e8 cd fb ff ff       	call   1170 <__isoc99_sscanf@plt>
    15a3:	83 c4 10             	add    $0x10,%esp
    15a6:	83 f8 01             	cmp    $0x1,%eax
    15a9:	75 1c                	jne    15c7 <phase_1+0x5c>
    15ab:	81 7c 24 08 c7 02 00 	cmpl   $0x2c7,0x8(%esp)
    15b2:	00 
    15b3:	75 19                	jne    15ce <phase_1+0x63>
    15b5:	8b 44 24 0c          	mov    0xc(%esp),%eax
    15b9:	65 2b 05 14 00 00 00 	sub    %gs:0x14,%eax
    15c0:	75 13                	jne    15d5 <phase_1+0x6a>
    15c2:	83 c4 18             	add    $0x18,%esp
    15c5:	5b                   	pop    %ebx
    15c6:	c3                   	ret    
    15c7:	e8 b9 08 00 00       	call   1e85 <explode_bomb>
    15cc:	eb dd                	jmp    15ab <phase_1+0x40>
    15ce:	e8 b2 08 00 00       	call   1e85 <explode_bomb>
    15d3:	eb e0                	jmp    15b5 <phase_1+0x4a>
    15d5:	e8 56 16 00 00       	call   2c30 <__stack_chk_fail_local>

000015da <phase_2>:
    15da:	53                   	push   %ebx
    15db:	83 ec 10             	sub    $0x10,%esp
    15de:	e8 8d fc ff ff       	call   1270 <__x86.get_pc_thunk.bx>
    15e3:	81 c3 71 49 00 00    	add    $0x4971,%ebx
    15e9:	8d 83 6c d2 ff ff    	lea    -0x2d94(%ebx),%eax
    15ef:	50                   	push   %eax
    15f0:	ff 74 24 1c          	push   0x1c(%esp)
    15f4:	e8 a8 05 00 00       	call   1ba1 <strings_not_equal>
    15f9:	83 c4 10             	add    $0x10,%esp
    15fc:	85 c0                	test   %eax,%eax
    15fe:	75 05                	jne    1605 <phase_2+0x2b>
    1600:	83 c4 08             	add    $0x8,%esp
    1603:	5b                   	pop    %ebx
    1604:	c3                   	ret    
    1605:	e8 7b 08 00 00       	call   1e85 <explode_bomb>
    160a:	eb f4                	jmp    1600 <phase_2+0x26>

0000160c <phase_3>:
    160c:	53                   	push   %ebx
    160d:	83 ec 14             	sub    $0x14,%esp
    1610:	e8 5b fc ff ff       	call   1270 <__x86.get_pc_thunk.bx>
    1615:	81 c3 3f 49 00 00    	add    $0x493f,%ebx
    161b:	8d 83 94 d2 ff ff    	lea    -0x2d6c(%ebx),%eax
    1621:	50                   	push   %eax
    1622:	e8 5c 05 00 00       	call   1b83 <string_length>
    1627:	83 c0 01             	add    $0x1,%eax
    162a:	89 04 24             	mov    %eax,(%esp)
    162d:	e8 ce fa ff ff       	call   1100 <malloc@plt>
    1632:	c7 00 49 20 63 61    	movl   $0x61632049,(%eax)
    1638:	c7 40 04 6e 20 73 65 	movl   $0x6573206e,0x4(%eax)
    163f:	c7 40 08 65 20 52 75 	movl   $0x75522065,0x8(%eax)
    1646:	c7 40 0c 73 73 69 61 	movl   $0x61697373,0xc(%eax)
    164d:	c7 40 10 20 66 72 6f 	movl   $0x6f726620,0x10(%eax)
    1654:	c7 40 14 6d 20 6d 79 	movl   $0x796d206d,0x14(%eax)
    165b:	c7 40 18 20 68 6f 75 	movl   $0x756f6820,0x18(%eax)
    1662:	c7 40 1c 73 65 21 00 	movl   $0x216573,0x1c(%eax)
    1669:	c6 40 17 62          	movb   $0x62,0x17(%eax)
    166d:	83 c4 08             	add    $0x8,%esp
    1670:	50                   	push   %eax
    1671:	ff 74 24 1c          	push   0x1c(%esp)
    1675:	e8 27 05 00 00       	call   1ba1 <strings_not_equal>
    167a:	83 c4 10             	add    $0x10,%esp
    167d:	85 c0                	test   %eax,%eax
    167f:	75 05                	jne    1686 <phase_3+0x7a>
    1681:	83 c4 08             	add    $0x8,%esp
    1684:	5b                   	pop    %ebx
    1685:	c3                   	ret    
    1686:	e8 fa 07 00 00       	call   1e85 <explode_bomb>
    168b:	eb f4                	jmp    1681 <phase_3+0x75>

0000168d <phase_4>:
    168d:	57                   	push   %edi
    168e:	56                   	push   %esi
    168f:	53                   	push   %ebx
    1690:	83 ec 28             	sub    $0x28,%esp
    1693:	e8 d8 fb ff ff       	call   1270 <__x86.get_pc_thunk.bx>
    1698:	81 c3 bc 48 00 00    	add    $0x48bc,%ebx
    169e:	65 a1 14 00 00 00    	mov    %gs:0x14,%eax
    16a4:	89 44 24 24          	mov    %eax,0x24(%esp)
    16a8:	31 c0                	xor    %eax,%eax
    16aa:	8d 44 24 0c          	lea    0xc(%esp),%eax
    16ae:	50                   	push   %eax
    16af:	ff 74 24 3c          	push   0x3c(%esp)
    16b3:	e8 1c 08 00 00       	call   1ed4 <read_six_numbers>
    16b8:	83 c4 10             	add    $0x10,%esp
    16bb:	83 7c 24 04 05       	cmpl   $0x5,0x4(%esp)
    16c0:	75 07                	jne    16c9 <phase_4+0x3c>
    16c2:	83 7c 24 08 08       	cmpl   $0x8,0x8(%esp)
    16c7:	74 05                	je     16ce <phase_4+0x41>
    16c9:	e8 b7 07 00 00       	call   1e85 <explode_bomb>
    16ce:	8d 74 24 04          	lea    0x4(%esp),%esi
    16d2:	8d 7c 24 14          	lea    0x14(%esp),%edi
    16d6:	eb 07                	jmp    16df <phase_4+0x52>
    16d8:	83 c6 04             	add    $0x4,%esi
    16db:	39 fe                	cmp    %edi,%esi
    16dd:	74 11                	je     16f0 <phase_4+0x63>
    16df:	8b 46 04             	mov    0x4(%esi),%eax
    16e2:	03 06                	add    (%esi),%eax
    16e4:	39 46 08             	cmp    %eax,0x8(%esi)
    16e7:	74 ef                	je     16d8 <phase_4+0x4b>
    16e9:	e8 97 07 00 00       	call   1e85 <explode_bomb>
    16ee:	eb e8                	jmp    16d8 <phase_4+0x4b>
    16f0:	8b 44 24 1c          	mov    0x1c(%esp),%eax
    16f4:	65 2b 05 14 00 00 00 	sub    %gs:0x14,%eax
    16fb:	75 07                	jne    1704 <phase_4+0x77>
    16fd:	83 c4 20             	add    $0x20,%esp
    1700:	5b                   	pop    %ebx
    1701:	5e                   	pop    %esi
    1702:	5f                   	pop    %edi
    1703:	c3                   	ret    
    1704:	e8 27 15 00 00       	call   2c30 <__stack_chk_fail_local>

00001709 <phase_5>:
    1709:	53                   	push   %ebx
    170a:	83 ec 18             	sub    $0x18,%esp
    170d:	e8 5e fb ff ff       	call   1270 <__x86.get_pc_thunk.bx>
    1712:	81 c3 42 48 00 00    	add    $0x4842,%ebx
    1718:	65 a1 14 00 00 00    	mov    %gs:0x14,%eax
    171e:	89 44 24 0c          	mov    %eax,0xc(%esp)
    1722:	31 c0                	xor    %eax,%eax
    1724:	8d 44 24 08          	lea    0x8(%esp),%eax
    1728:	50                   	push   %eax
    1729:	8d 44 24 08          	lea    0x8(%esp),%eax
    172d:	50                   	push   %eax
    172e:	8d 83 a1 d4 ff ff    	lea    -0x2b5f(%ebx),%eax
    1734:	50                   	push   %eax
    1735:	ff 74 24 2c          	push   0x2c(%esp)
    1739:	e8 32 fa ff ff       	call   1170 <__isoc99_sscanf@plt>
    173e:	83 c4 10             	add    $0x10,%esp
    1741:	83 f8 01             	cmp    $0x1,%eax
    1744:	7e 16                	jle    175c <phase_5+0x53>
    1746:	83 7c 24 04 07       	cmpl   $0x7,0x4(%esp)
    174b:	77 5d                	ja     17aa <.L30+0x7>
    174d:	8b 44 24 04          	mov    0x4(%esp),%eax
    1751:	89 da                	mov    %ebx,%edx
    1753:	03 94 83 b4 d2 ff ff 	add    -0x2d4c(%ebx,%eax,4),%edx
    175a:	ff e2                	jmp    *%edx
    175c:	e8 24 07 00 00       	call   1e85 <explode_bomb>
    1761:	eb e3                	jmp    1746 <phase_5+0x3d>

00001763 <.L37>:
    1763:	b8 d3 02 00 00       	mov    $0x2d3,%eax
    1768:	39 44 24 08          	cmp    %eax,0x8(%esp)
    176c:	75 4f                	jne    17bd <.L41+0x7>
    176e:	8b 44 24 0c          	mov    0xc(%esp),%eax
    1772:	65 2b 05 14 00 00 00 	sub    %gs:0x14,%eax
    1779:	75 49                	jne    17c4 <.L41+0xe>
    177b:	83 c4 18             	add    $0x18,%esp
    177e:	5b                   	pop    %ebx
    177f:	c3                   	ret    

00001780 <.L36>:
    1780:	b8 17 02 00 00       	mov    $0x217,%eax
    1785:	eb e1                	jmp    1768 <.L37+0x5>

00001787 <.L35>:
    1787:	b8 11 01 00 00       	mov    $0x111,%eax
    178c:	eb da                	jmp    1768 <.L37+0x5>

0000178e <.L34>:
    178e:	b8 8f 03 00 00       	mov    $0x38f,%eax
    1793:	eb d3                	jmp    1768 <.L37+0x5>

00001795 <.L33>:
    1795:	b8 0a 03 00 00       	mov    $0x30a,%eax
    179a:	eb cc                	jmp    1768 <.L37+0x5>

0000179c <.L32>:
    179c:	b8 f7 01 00 00       	mov    $0x1f7,%eax
    17a1:	eb c5                	jmp    1768 <.L37+0x5>

000017a3 <.L30>:
    17a3:	b8 9b 02 00 00       	mov    $0x29b,%eax
    17a8:	eb be                	jmp    1768 <.L37+0x5>
    17aa:	e8 d6 06 00 00       	call   1e85 <explode_bomb>
    17af:	b8 00 00 00 00       	mov    $0x0,%eax
    17b4:	eb b2                	jmp    1768 <.L37+0x5>

000017b6 <.L41>:
    17b6:	b8 3b 01 00 00       	mov    $0x13b,%eax
    17bb:	eb ab                	jmp    1768 <.L37+0x5>
    17bd:	e8 c3 06 00 00       	call   1e85 <explode_bomb>
    17c2:	eb aa                	jmp    176e <.L37+0xb>
    17c4:	e8 67 14 00 00       	call   2c30 <__stack_chk_fail_local>

000017c9 <func6>:
    17c9:	57                   	push   %edi
    17ca:	56                   	push   %esi
    17cb:	53                   	push   %ebx
    17cc:	8b 5c 24 10          	mov    0x10(%esp),%ebx
    17d0:	8b 7c 24 14          	mov    0x14(%esp),%edi
    17d4:	b8 00 00 00 00       	mov    $0x0,%eax
    17d9:	85 db                	test   %ebx,%ebx
    17db:	7e 29                	jle    1806 <func6+0x3d>
    17dd:	89 f8                	mov    %edi,%eax
    17df:	83 fb 01             	cmp    $0x1,%ebx
    17e2:	74 22                	je     1806 <func6+0x3d>
    17e4:	83 ec 08             	sub    $0x8,%esp
    17e7:	57                   	push   %edi
    17e8:	8d 43 ff             	lea    -0x1(%ebx),%eax
    17eb:	50                   	push   %eax
    17ec:	e8 d8 ff ff ff       	call   17c9 <func6>
    17f1:	83 c4 08             	add    $0x8,%esp
    17f4:	8d 34 38             	lea    (%eax,%edi,1),%esi
    17f7:	57                   	push   %edi
    17f8:	83 eb 02             	sub    $0x2,%ebx
    17fb:	53                   	push   %ebx
    17fc:	e8 c8 ff ff ff       	call   17c9 <func6>
    1801:	83 c4 10             	add    $0x10,%esp
    1804:	01 f0                	add    %esi,%eax
    1806:	5b                   	pop    %ebx
    1807:	5e                   	pop    %esi
    1808:	5f                   	pop    %edi
    1809:	c3                   	ret    

0000180a <phase_6>:
    180a:	53                   	push   %ebx
    180b:	83 ec 18             	sub    $0x18,%esp
    180e:	e8 5d fa ff ff       	call   1270 <__x86.get_pc_thunk.bx>
    1813:	81 c3 41 47 00 00    	add    $0x4741,%ebx
    1819:	65 a1 14 00 00 00    	mov    %gs:0x14,%eax
    181f:	89 44 24 0c          	mov    %eax,0xc(%esp)
    1823:	31 c0                	xor    %eax,%eax
    1825:	8d 44 24 04          	lea    0x4(%esp),%eax
    1829:	50                   	push   %eax
    182a:	8d 44 24 0c          	lea    0xc(%esp),%eax
    182e:	50                   	push   %eax
    182f:	8d 83 a1 d4 ff ff    	lea    -0x2b5f(%ebx),%eax
    1835:	50                   	push   %eax
    1836:	ff 74 24 2c          	push   0x2c(%esp)
    183a:	e8 31 f9 ff ff       	call   1170 <__isoc99_sscanf@plt>
    183f:	83 c4 10             	add    $0x10,%esp
    1842:	83 f8 02             	cmp    $0x2,%eax
    1845:	75 0c                	jne    1853 <phase_6+0x49>
    1847:	8b 44 24 04          	mov    0x4(%esp),%eax
    184b:	83 e8 02             	sub    $0x2,%eax
    184e:	83 f8 02             	cmp    $0x2,%eax
    1851:	76 05                	jbe    1858 <phase_6+0x4e>
    1853:	e8 2d 06 00 00       	call   1e85 <explode_bomb>
    1858:	83 ec 08             	sub    $0x8,%esp
    185b:	ff 74 24 0c          	push   0xc(%esp)
    185f:	6a 07                	push   $0x7
    1861:	e8 63 ff ff ff       	call   17c9 <func6>
    1866:	83 c4 10             	add    $0x10,%esp
    1869:	39 44 24 08          	cmp    %eax,0x8(%esp)
    186d:	75 12                	jne    1881 <phase_6+0x77>
    186f:	8b 44 24 0c          	mov    0xc(%esp),%eax
    1873:	65 2b 05 14 00 00 00 	sub    %gs:0x14,%eax
    187a:	75 0c                	jne    1888 <phase_6+0x7e>
    187c:	83 c4 18             	add    $0x18,%esp
    187f:	5b                   	pop    %ebx
    1880:	c3                   	ret    
    1881:	e8 ff 05 00 00       	call   1e85 <explode_bomb>
    1886:	eb e7                	jmp    186f <phase_6+0x65>
    1888:	e8 a3 13 00 00       	call   2c30 <__stack_chk_fail_local>

0000188d <phase_7>:
    188d:	56                   	push   %esi
    188e:	53                   	push   %ebx
    188f:	83 ec 20             	sub    $0x20,%esp
    1892:	e8 d9 f9 ff ff       	call   1270 <__x86.get_pc_thunk.bx>
    1897:	81 c3 bd 46 00 00    	add    $0x46bd,%ebx
    189d:	8b 74 24 2c          	mov    0x2c(%esp),%esi
    18a1:	65 a1 14 00 00 00    	mov    %gs:0x14,%eax
    18a7:	89 44 24 18          	mov    %eax,0x18(%esp)
    18ab:	31 c0                	xor    %eax,%eax
    18ad:	56                   	push   %esi
    18ae:	e8 d0 02 00 00       	call   1b83 <string_length>
    18b3:	83 c4 10             	add    $0x10,%esp
    18b6:	83 f8 06             	cmp    $0x6,%eax
    18b9:	75 55                	jne    1910 <phase_7+0x83>
    18bb:	b8 00 00 00 00       	mov    $0x0,%eax
    18c0:	8d 8b d4 d2 ff ff    	lea    -0x2d2c(%ebx),%ecx
    18c6:	0f b6 14 06          	movzbl (%esi,%eax,1),%edx
    18ca:	83 e2 0f             	and    $0xf,%edx
    18cd:	0f b6 14 11          	movzbl (%ecx,%edx,1),%edx
    18d1:	88 54 04 05          	mov    %dl,0x5(%esp,%eax,1)
    18d5:	83 c0 01             	add    $0x1,%eax
    18d8:	83 f8 06             	cmp    $0x6,%eax
    18db:	75 e9                	jne    18c6 <phase_7+0x39>
    18dd:	c6 44 24 0b 00       	movb   $0x0,0xb(%esp)
    18e2:	83 ec 08             	sub    $0x8,%esp
    18e5:	8d 83 62 d2 ff ff    	lea    -0x2d9e(%ebx),%eax
    18eb:	50                   	push   %eax
    18ec:	8d 44 24 11          	lea    0x11(%esp),%eax
    18f0:	50                   	push   %eax
    18f1:	e8 ab 02 00 00       	call   1ba1 <strings_not_equal>
    18f6:	83 c4 10             	add    $0x10,%esp
    18f9:	85 c0                	test   %eax,%eax
    18fb:	75 1a                	jne    1917 <phase_7+0x8a>
    18fd:	8b 44 24 0c          	mov    0xc(%esp),%eax
    1901:	65 2b 05 14 00 00 00 	sub    %gs:0x14,%eax
    1908:	75 14                	jne    191e <phase_7+0x91>
    190a:	83 c4 14             	add    $0x14,%esp
    190d:	5b                   	pop    %ebx
    190e:	5e                   	pop    %esi
    190f:	c3                   	ret    
    1910:	e8 70 05 00 00       	call   1e85 <explode_bomb>
    1915:	eb a4                	jmp    18bb <phase_7+0x2e>
    1917:	e8 69 05 00 00       	call   1e85 <explode_bomb>
    191c:	eb df                	jmp    18fd <phase_7+0x70>
    191e:	e8 0d 13 00 00       	call   2c30 <__stack_chk_fail_local>

00001923 <phase_8>:
    1923:	55                   	push   %ebp
    1924:	57                   	push   %edi
    1925:	56                   	push   %esi
    1926:	53                   	push   %ebx
    1927:	83 ec 64             	sub    $0x64,%esp
    192a:	e8 41 f9 ff ff       	call   1270 <__x86.get_pc_thunk.bx>
    192f:	81 c3 25 46 00 00    	add    $0x4625,%ebx
    1935:	65 a1 14 00 00 00    	mov    %gs:0x14,%eax
    193b:	89 44 24 54          	mov    %eax,0x54(%esp)
    193f:	31 c0                	xor    %eax,%eax
    1941:	8d 74 24 24          	lea    0x24(%esp),%esi
    1945:	56                   	push   %esi
    1946:	ff 74 24 7c          	push   0x7c(%esp)
    194a:	e8 85 05 00 00       	call   1ed4 <read_six_numbers>
    194f:	89 74 24 18          	mov    %esi,0x18(%esp)
    1953:	83 c4 10             	add    $0x10,%esp
    1956:	c7 44 24 04 00 00 00 	movl   $0x0,0x4(%esp)
    195d:	00 
    195e:	89 f5                	mov    %esi,%ebp
    1960:	eb 23                	jmp    1985 <phase_8+0x62>
    1962:	e8 1e 05 00 00       	call   1e85 <explode_bomb>
    1967:	eb 30                	jmp    1999 <phase_8+0x76>
    1969:	83 c6 01             	add    $0x1,%esi
    196c:	83 fe 06             	cmp    $0x6,%esi
    196f:	74 0f                	je     1980 <phase_8+0x5d>
    1971:	8b 44 b5 00          	mov    0x0(%ebp,%esi,4),%eax
    1975:	39 07                	cmp    %eax,(%edi)
    1977:	75 f0                	jne    1969 <phase_8+0x46>
    1979:	e8 07 05 00 00       	call   1e85 <explode_bomb>
    197e:	eb e9                	jmp    1969 <phase_8+0x46>
    1980:	83 44 24 08 04       	addl   $0x4,0x8(%esp)
    1985:	8b 44 24 08          	mov    0x8(%esp),%eax
    1989:	89 c7                	mov    %eax,%edi
    198b:	8b 00                	mov    (%eax),%eax
    198d:	89 44 24 0c          	mov    %eax,0xc(%esp)
    1991:	83 e8 01             	sub    $0x1,%eax
    1994:	83 f8 05             	cmp    $0x5,%eax
    1997:	77 c9                	ja     1962 <phase_8+0x3f>
    1999:	83 44 24 04 01       	addl   $0x1,0x4(%esp)
    199e:	8b 74 24 04          	mov    0x4(%esp),%esi
    19a2:	83 fe 05             	cmp    $0x5,%esi
    19a5:	7e ca                	jle    1971 <phase_8+0x4e>
    19a7:	be 00 00 00 00       	mov    $0x0,%esi
    19ac:	89 f7                	mov    %esi,%edi
    19ae:	8b 4c b4 1c          	mov    0x1c(%esp,%esi,4),%ecx
    19b2:	b8 01 00 00 00       	mov    $0x1,%eax
    19b7:	8d 93 a4 05 00 00    	lea    0x5a4(%ebx),%edx
    19bd:	83 f9 01             	cmp    $0x1,%ecx
    19c0:	7e 0a                	jle    19cc <phase_8+0xa9>
    19c2:	8b 52 08             	mov    0x8(%edx),%edx
    19c5:	83 c0 01             	add    $0x1,%eax
    19c8:	39 c8                	cmp    %ecx,%eax
    19ca:	75 f6                	jne    19c2 <phase_8+0x9f>
    19cc:	89 54 bc 34          	mov    %edx,0x34(%esp,%edi,4)
    19d0:	83 c6 01             	add    $0x1,%esi
    19d3:	83 fe 06             	cmp    $0x6,%esi
    19d6:	75 d4                	jne    19ac <phase_8+0x89>
    19d8:	8b 74 24 34          	mov    0x34(%esp),%esi
    19dc:	8b 44 24 38          	mov    0x38(%esp),%eax
    19e0:	89 46 08             	mov    %eax,0x8(%esi)
    19e3:	8b 54 24 3c          	mov    0x3c(%esp),%edx
    19e7:	89 50 08             	mov    %edx,0x8(%eax)
    19ea:	8b 44 24 40          	mov    0x40(%esp),%eax
    19ee:	89 42 08             	mov    %eax,0x8(%edx)
    19f1:	8b 54 24 44          	mov    0x44(%esp),%edx
    19f5:	89 50 08             	mov    %edx,0x8(%eax)
    19f8:	8b 44 24 48          	mov    0x48(%esp),%eax
    19fc:	89 42 08             	mov    %eax,0x8(%edx)
    19ff:	c7 40 08 00 00 00 00 	movl   $0x0,0x8(%eax)
    1a06:	bf 05 00 00 00       	mov    $0x5,%edi
    1a0b:	eb 08                	jmp    1a15 <phase_8+0xf2>
    1a0d:	8b 76 08             	mov    0x8(%esi),%esi
    1a10:	83 ef 01             	sub    $0x1,%edi
    1a13:	74 10                	je     1a25 <phase_8+0x102>
    1a15:	8b 46 08             	mov    0x8(%esi),%eax
    1a18:	8b 00                	mov    (%eax),%eax
    1a1a:	39 06                	cmp    %eax,(%esi)
    1a1c:	7d ef                	jge    1a0d <phase_8+0xea>
    1a1e:	e8 62 04 00 00       	call   1e85 <explode_bomb>
    1a23:	eb e8                	jmp    1a0d <phase_8+0xea>
    1a25:	8b 44 24 4c          	mov    0x4c(%esp),%eax
    1a29:	65 2b 05 14 00 00 00 	sub    %gs:0x14,%eax
    1a30:	75 08                	jne    1a3a <phase_8+0x117>
    1a32:	83 c4 5c             	add    $0x5c,%esp
    1a35:	5b                   	pop    %ebx
    1a36:	5e                   	pop    %esi
    1a37:	5f                   	pop    %edi
    1a38:	5d                   	pop    %ebp
    1a39:	c3                   	ret    
    1a3a:	e8 f1 11 00 00       	call   2c30 <__stack_chk_fail_local>

00001a3f <fun9>:
    1a3f:	53                   	push   %ebx
    1a40:	83 ec 08             	sub    $0x8,%esp
    1a43:	8b 54 24 10          	mov    0x10(%esp),%edx
    1a47:	8b 4c 24 14          	mov    0x14(%esp),%ecx
    1a4b:	85 d2                	test   %edx,%edx
    1a4d:	74 3a                	je     1a89 <fun9+0x4a>
    1a4f:	8b 1a                	mov    (%edx),%ebx
    1a51:	39 cb                	cmp    %ecx,%ebx
    1a53:	7f 0c                	jg     1a61 <fun9+0x22>
    1a55:	b8 00 00 00 00       	mov    $0x0,%eax
    1a5a:	75 18                	jne    1a74 <fun9+0x35>
    1a5c:	83 c4 08             	add    $0x8,%esp
    1a5f:	5b                   	pop    %ebx
    1a60:	c3                   	ret    
    1a61:	83 ec 08             	sub    $0x8,%esp
    1a64:	51                   	push   %ecx
    1a65:	ff 72 04             	push   0x4(%edx)
    1a68:	e8 d2 ff ff ff       	call   1a3f <fun9>
    1a6d:	83 c4 10             	add    $0x10,%esp
    1a70:	01 c0                	add    %eax,%eax
    1a72:	eb e8                	jmp    1a5c <fun9+0x1d>
    1a74:	83 ec 08             	sub    $0x8,%esp
    1a77:	51                   	push   %ecx
    1a78:	ff 72 08             	push   0x8(%edx)
    1a7b:	e8 bf ff ff ff       	call   1a3f <fun9>
    1a80:	83 c4 10             	add    $0x10,%esp
    1a83:	8d 44 00 01          	lea    0x1(%eax,%eax,1),%eax
    1a87:	eb d3                	jmp    1a5c <fun9+0x1d>
    1a89:	b8 ff ff ff ff       	mov    $0xffffffff,%eax
    1a8e:	eb cc                	jmp    1a5c <fun9+0x1d>

00001a90 <phase_9>:
    1a90:	56                   	push   %esi
    1a91:	53                   	push   %ebx
    1a92:	83 ec 08             	sub    $0x8,%esp
    1a95:	e8 d6 f7 ff ff       	call   1270 <__x86.get_pc_thunk.bx>
    1a9a:	81 c3 ba 44 00 00    	add    $0x44ba,%ebx
    1aa0:	6a 0a                	push   $0xa
    1aa2:	6a 00                	push   $0x0
    1aa4:	ff 74 24 1c          	push   0x1c(%esp)
    1aa8:	e8 33 f7 ff ff       	call   11e0 <strtol@plt>
    1aad:	89 c6                	mov    %eax,%esi
    1aaf:	8d 40 ff             	lea    -0x1(%eax),%eax
    1ab2:	83 c4 10             	add    $0x10,%esp
    1ab5:	3d ec 03 00 00       	cmp    $0x3ec,%eax
    1aba:	77 1e                	ja     1ada <phase_9+0x4a>
    1abc:	83 ec 08             	sub    $0x8,%esp
    1abf:	56                   	push   %esi
    1ac0:	8d 83 50 05 00 00    	lea    0x550(%ebx),%eax
    1ac6:	50                   	push   %eax
    1ac7:	e8 73 ff ff ff       	call   1a3f <fun9>
    1acc:	83 c4 10             	add    $0x10,%esp
    1acf:	83 f8 03             	cmp    $0x3,%eax
    1ad2:	75 0d                	jne    1ae1 <phase_9+0x51>
    1ad4:	83 c4 04             	add    $0x4,%esp
    1ad7:	5b                   	pop    %ebx
    1ad8:	5e                   	pop    %esi
    1ad9:	c3                   	ret    
    1ada:	e8 a6 03 00 00       	call   1e85 <explode_bomb>
    1adf:	eb db                	jmp    1abc <phase_9+0x2c>
    1ae1:	e8 9f 03 00 00       	call   1e85 <explode_bomb>
    1ae6:	eb ec                	jmp    1ad4 <phase_9+0x44>

00001ae8 <sig_handler>:
    1ae8:	53                   	push   %ebx
    1ae9:	83 ec 14             	sub    $0x14,%esp
    1aec:	e8 7f f7 ff ff       	call   1270 <__x86.get_pc_thunk.bx>
    1af1:	81 c3 63 44 00 00    	add    $0x4463,%ebx
    1af7:	8d 83 e4 d2 ff ff    	lea    -0x2d1c(%ebx),%eax
    1afd:	50                   	push   %eax
    1afe:	e8 0d f6 ff ff       	call   1110 <puts@plt>
    1b03:	c7 04 24 03 00 00 00 	movl   $0x3,(%esp)
    1b0a:	e8 91 f5 ff ff       	call   10a0 <sleep@plt>
    1b0f:	83 c4 08             	add    $0x8,%esp
    1b12:	8d 83 1d d4 ff ff    	lea    -0x2be3(%ebx),%eax
    1b18:	50                   	push   %eax
    1b19:	6a 01                	push   $0x1
    1b1b:	e8 80 f6 ff ff       	call   11a0 <__printf_chk@plt>
    1b20:	83 c4 04             	add    $0x4,%esp
    1b23:	8b 83 9c 00 00 00    	mov    0x9c(%ebx),%eax
    1b29:	ff 30                	push   (%eax)
    1b2b:	e8 40 f5 ff ff       	call   1070 <fflush@plt>
    1b30:	c7 04 24 01 00 00 00 	movl   $0x1,(%esp)
    1b37:	e8 64 f5 ff ff       	call   10a0 <sleep@plt>
    1b3c:	8d 83 25 d4 ff ff    	lea    -0x2bdb(%ebx),%eax
    1b42:	89 04 24             	mov    %eax,(%esp)
    1b45:	e8 c6 f5 ff ff       	call   1110 <puts@plt>
    1b4a:	c7 04 24 10 00 00 00 	movl   $0x10,(%esp)
    1b51:	e8 da f5 ff ff       	call   1130 <exit@plt>

00001b56 <invalid_phase>:
    1b56:	53                   	push   %ebx
    1b57:	83 ec 0c             	sub    $0xc,%esp
    1b5a:	e8 11 f7 ff ff       	call   1270 <__x86.get_pc_thunk.bx>
    1b5f:	81 c3 f5 43 00 00    	add    $0x43f5,%ebx
    1b65:	ff 74 24 14          	push   0x14(%esp)
    1b69:	8d 83 2d d4 ff ff    	lea    -0x2bd3(%ebx),%eax
    1b6f:	50                   	push   %eax
    1b70:	6a 01                	push   $0x1
    1b72:	e8 29 f6 ff ff       	call   11a0 <__printf_chk@plt>
    1b77:	c7 04 24 08 00 00 00 	movl   $0x8,(%esp)
    1b7e:	e8 ad f5 ff ff       	call   1130 <exit@plt>

00001b83 <string_length>:
    1b83:	8b 54 24 04          	mov    0x4(%esp),%edx
    1b87:	80 3a 00             	cmpb   $0x0,(%edx)
    1b8a:	74 0f                	je     1b9b <string_length+0x18>
    1b8c:	b8 00 00 00 00       	mov    $0x0,%eax
    1b91:	83 c0 01             	add    $0x1,%eax
    1b94:	80 3c 02 00          	cmpb   $0x0,(%edx,%eax,1)
    1b98:	75 f7                	jne    1b91 <string_length+0xe>
    1b9a:	c3                   	ret    
    1b9b:	b8 00 00 00 00       	mov    $0x0,%eax
    1ba0:	c3                   	ret    

00001ba1 <strings_not_equal>:
    1ba1:	57                   	push   %edi
    1ba2:	56                   	push   %esi
    1ba3:	53                   	push   %ebx
    1ba4:	8b 5c 24 10          	mov    0x10(%esp),%ebx
    1ba8:	8b 74 24 14          	mov    0x14(%esp),%esi
    1bac:	53                   	push   %ebx
    1bad:	e8 d1 ff ff ff       	call   1b83 <string_length>
    1bb2:	89 c7                	mov    %eax,%edi
    1bb4:	89 34 24             	mov    %esi,(%esp)
    1bb7:	e8 c7 ff ff ff       	call   1b83 <string_length>
    1bbc:	83 c4 04             	add    $0x4,%esp
    1bbf:	89 c2                	mov    %eax,%edx
    1bc1:	b8 01 00 00 00       	mov    $0x1,%eax
    1bc6:	39 d7                	cmp    %edx,%edi
    1bc8:	75 2b                	jne    1bf5 <strings_not_equal+0x54>
    1bca:	0f b6 03             	movzbl (%ebx),%eax
    1bcd:	84 c0                	test   %al,%al
    1bcf:	74 18                	je     1be9 <strings_not_equal+0x48>
    1bd1:	38 06                	cmp    %al,(%esi)
    1bd3:	75 1b                	jne    1bf0 <strings_not_equal+0x4f>
    1bd5:	83 c3 01             	add    $0x1,%ebx
    1bd8:	83 c6 01             	add    $0x1,%esi
    1bdb:	0f b6 03             	movzbl (%ebx),%eax
    1bde:	84 c0                	test   %al,%al
    1be0:	75 ef                	jne    1bd1 <strings_not_equal+0x30>
    1be2:	b8 00 00 00 00       	mov    $0x0,%eax
    1be7:	eb 0c                	jmp    1bf5 <strings_not_equal+0x54>
    1be9:	b8 00 00 00 00       	mov    $0x0,%eax
    1bee:	eb 05                	jmp    1bf5 <strings_not_equal+0x54>
    1bf0:	b8 01 00 00 00       	mov    $0x1,%eax
    1bf5:	5b                   	pop    %ebx
    1bf6:	5e                   	pop    %esi
    1bf7:	5f                   	pop    %edi
    1bf8:	c3                   	ret    

00001bf9 <initialize_bomb>:
    1bf9:	57                   	push   %edi
    1bfa:	56                   	push   %esi
    1bfb:	53                   	push   %ebx
    1bfc:	81 ec 00 10 00 00    	sub    $0x1000,%esp
    1c02:	83 0c 24 00          	orl    $0x0,(%esp)
    1c06:	81 ec 00 10 00 00    	sub    $0x1000,%esp
    1c0c:	83 0c 24 00          	orl    $0x0,(%esp)
    1c10:	83 ec 58             	sub    $0x58,%esp
    1c13:	e8 58 f6 ff ff       	call   1270 <__x86.get_pc_thunk.bx>
    1c18:	81 c3 3c 43 00 00    	add    $0x433c,%ebx
    1c1e:	65 a1 14 00 00 00    	mov    %gs:0x14,%eax
    1c24:	89 84 24 54 20 00 00 	mov    %eax,0x2054(%esp)
    1c2b:	31 c0                	xor    %eax,%eax
    1c2d:	8d 83 94 bb ff ff    	lea    -0x446c(%ebx),%eax
    1c33:	50                   	push   %eax
    1c34:	6a 02                	push   $0x2
    1c36:	e8 55 f4 ff ff       	call   1090 <signal@plt>
    1c3b:	83 c4 08             	add    $0x8,%esp
    1c3e:	6a 40                	push   $0x40
    1c40:	8d 44 24 18          	lea    0x18(%esp),%eax
    1c44:	50                   	push   %eax
    1c45:	e8 96 f4 ff ff       	call   10e0 <gethostname@plt>
    1c4a:	83 c4 10             	add    $0x10,%esp
    1c4d:	85 c0                	test   %eax,%eax
    1c4f:	75 4a                	jne    1c9b <initialize_bomb+0xa2>
    1c51:	8b 83 ec 05 00 00    	mov    0x5ec(%ebx),%eax
    1c57:	8d b3 f0 05 00 00    	lea    0x5f0(%ebx),%esi
    1c5d:	8d 7c 24 0c          	lea    0xc(%esp),%edi
    1c61:	85 c0                	test   %eax,%eax
    1c63:	74 1b                	je     1c80 <initialize_bomb+0x87>
    1c65:	83 ec 08             	sub    $0x8,%esp
    1c68:	57                   	push   %edi
    1c69:	50                   	push   %eax
    1c6a:	e8 f1 f4 ff ff       	call   1160 <strcasecmp@plt>
    1c6f:	83 c4 10             	add    $0x10,%esp
    1c72:	85 c0                	test   %eax,%eax
    1c74:	74 62                	je     1cd8 <initialize_bomb+0xdf>
    1c76:	83 c6 04             	add    $0x4,%esi
    1c79:	8b 46 fc             	mov    -0x4(%esi),%eax
    1c7c:	85 c0                	test   %eax,%eax
    1c7e:	75 e5                	jne    1c65 <initialize_bomb+0x6c>
    1c80:	83 ec 0c             	sub    $0xc,%esp
    1c83:	8d 83 54 d3 ff ff    	lea    -0x2cac(%ebx),%eax
    1c89:	50                   	push   %eax
    1c8a:	e8 81 f4 ff ff       	call   1110 <puts@plt>
    1c8f:	c7 04 24 08 00 00 00 	movl   $0x8,(%esp)
    1c96:	e8 95 f4 ff ff       	call   1130 <exit@plt>
    1c9b:	83 ec 0c             	sub    $0xc,%esp
    1c9e:	8d 83 1c d3 ff ff    	lea    -0x2ce4(%ebx),%eax
    1ca4:	50                   	push   %eax
    1ca5:	e8 66 f4 ff ff       	call   1110 <puts@plt>
    1caa:	c7 04 24 08 00 00 00 	movl   $0x8,(%esp)
    1cb1:	e8 7a f4 ff ff       	call   1130 <exit@plt>
    1cb6:	83 ec 04             	sub    $0x4,%esp
    1cb9:	8d 44 24 50          	lea    0x50(%esp),%eax
    1cbd:	50                   	push   %eax
    1cbe:	8d 83 3e d4 ff ff    	lea    -0x2bc2(%ebx),%eax
    1cc4:	50                   	push   %eax
    1cc5:	6a 01                	push   $0x1
    1cc7:	e8 d4 f4 ff ff       	call   11a0 <__printf_chk@plt>
    1ccc:	c7 04 24 08 00 00 00 	movl   $0x8,(%esp)
    1cd3:	e8 58 f4 ff ff       	call   1130 <exit@plt>
    1cd8:	83 ec 0c             	sub    $0xc,%esp
    1cdb:	8d 44 24 58          	lea    0x58(%esp),%eax
    1cdf:	50                   	push   %eax
    1ce0:	e8 c5 0c 00 00       	call   29aa <init_driver>
    1ce5:	83 c4 10             	add    $0x10,%esp
    1ce8:	85 c0                	test   %eax,%eax
    1cea:	78 ca                	js     1cb6 <initialize_bomb+0xbd>
    1cec:	8b 84 24 4c 20 00 00 	mov    0x204c(%esp),%eax
    1cf3:	65 2b 05 14 00 00 00 	sub    %gs:0x14,%eax
    1cfa:	75 0a                	jne    1d06 <initialize_bomb+0x10d>
    1cfc:	81 c4 50 20 00 00    	add    $0x2050,%esp
    1d02:	5b                   	pop    %ebx
    1d03:	5e                   	pop    %esi
    1d04:	5f                   	pop    %edi
    1d05:	c3                   	ret    
    1d06:	e8 25 0f 00 00       	call   2c30 <__stack_chk_fail_local>

00001d0b <initialize_bomb_solve>:
    1d0b:	c3                   	ret    

00001d0c <blank_line>:
    1d0c:	57                   	push   %edi
    1d0d:	56                   	push   %esi
    1d0e:	53                   	push   %ebx
    1d0f:	e8 5c f5 ff ff       	call   1270 <__x86.get_pc_thunk.bx>
    1d14:	81 c3 40 42 00 00    	add    $0x4240,%ebx
    1d1a:	8b 7c 24 10          	mov    0x10(%esp),%edi
    1d1e:	0f b6 37             	movzbl (%edi),%esi
    1d21:	89 f0                	mov    %esi,%eax
    1d23:	84 c0                	test   %al,%al
    1d25:	74 1d                	je     1d44 <blank_line+0x38>
    1d27:	e8 e4 f4 ff ff       	call   1210 <__ctype_b_loc@plt>
    1d2c:	83 c7 01             	add    $0x1,%edi
    1d2f:	89 f2                	mov    %esi,%edx
    1d31:	0f be f2             	movsbl %dl,%esi
    1d34:	8b 00                	mov    (%eax),%eax
    1d36:	f6 44 70 01 20       	testb  $0x20,0x1(%eax,%esi,2)
    1d3b:	75 e1                	jne    1d1e <blank_line+0x12>
    1d3d:	b8 00 00 00 00       	mov    $0x0,%eax
    1d42:	eb 05                	jmp    1d49 <blank_line+0x3d>
    1d44:	b8 01 00 00 00       	mov    $0x1,%eax
    1d49:	5b                   	pop    %ebx
    1d4a:	5e                   	pop    %esi
    1d4b:	5f                   	pop    %edi
    1d4c:	c3                   	ret    

00001d4d <skip>:
    1d4d:	55                   	push   %ebp
    1d4e:	57                   	push   %edi
    1d4f:	56                   	push   %esi
    1d50:	53                   	push   %ebx
    1d51:	83 ec 0c             	sub    $0xc,%esp
    1d54:	e8 17 f5 ff ff       	call   1270 <__x86.get_pc_thunk.bx>
    1d59:	81 c3 fb 41 00 00    	add    $0x41fb,%ebx
    1d5f:	8d bb f0 07 00 00    	lea    0x7f0(%ebx),%edi
    1d65:	8d b3 6c 08 00 00    	lea    0x86c(%ebx),%esi
    1d6b:	83 ec 04             	sub    $0x4,%esp
    1d6e:	ff 37                	push   (%edi)
    1d70:	6a 50                	push   $0x50
    1d72:	8b 83 5c 08 00 00    	mov    0x85c(%ebx),%eax
    1d78:	8d 04 80             	lea    (%eax,%eax,4),%eax
    1d7b:	c1 e0 04             	shl    $0x4,%eax
    1d7e:	01 f0                	add    %esi,%eax
    1d80:	50                   	push   %eax
    1d81:	e8 fa f2 ff ff       	call   1080 <fgets@plt>
    1d86:	89 c5                	mov    %eax,%ebp
    1d88:	83 c4 10             	add    $0x10,%esp
    1d8b:	85 c0                	test   %eax,%eax
    1d8d:	74 10                	je     1d9f <skip+0x52>
    1d8f:	83 ec 0c             	sub    $0xc,%esp
    1d92:	50                   	push   %eax
    1d93:	e8 74 ff ff ff       	call   1d0c <blank_line>
    1d98:	83 c4 10             	add    $0x10,%esp
    1d9b:	85 c0                	test   %eax,%eax
    1d9d:	75 cc                	jne    1d6b <skip+0x1e>
    1d9f:	89 e8                	mov    %ebp,%eax
    1da1:	83 c4 0c             	add    $0xc,%esp
    1da4:	5b                   	pop    %ebx
    1da5:	5e                   	pop    %esi
    1da6:	5f                   	pop    %edi
    1da7:	5d                   	pop    %ebp
    1da8:	c3                   	ret    

00001da9 <send_msg>:
    1da9:	56                   	push   %esi
    1daa:	53                   	push   %ebx
    1dab:	8d 84 24 00 c0 ff ff 	lea    -0x4000(%esp),%eax
    1db2:	81 ec 00 10 00 00    	sub    $0x1000,%esp
    1db8:	83 0c 24 00          	orl    $0x0,(%esp)
    1dbc:	39 c4                	cmp    %eax,%esp
    1dbe:	75 f2                	jne    1db2 <send_msg+0x9>
    1dc0:	83 ec 14             	sub    $0x14,%esp
    1dc3:	e8 a8 f4 ff ff       	call   1270 <__x86.get_pc_thunk.bx>
    1dc8:	81 c3 8c 41 00 00    	add    $0x418c,%ebx
    1dce:	65 a1 14 00 00 00    	mov    %gs:0x14,%eax
    1dd4:	89 84 24 0c 40 00 00 	mov    %eax,0x400c(%esp)
    1ddb:	31 c0                	xor    %eax,%eax
    1ddd:	8b 93 5c 08 00 00    	mov    0x85c(%ebx),%edx
    1de3:	8d 44 92 fb          	lea    -0x5(%edx,%edx,4),%eax
    1de7:	c1 e0 04             	shl    $0x4,%eax
    1dea:	8d 8c 03 6c 08 00 00 	lea    0x86c(%ebx,%eax,1),%ecx
    1df1:	83 bc 24 20 40 00 00 	cmpl   $0x0,0x4020(%esp)
    1df8:	00 
    1df9:	8d 83 58 d4 ff ff    	lea    -0x2ba8(%ebx),%eax
    1dff:	8d b3 60 d4 ff ff    	lea    -0x2ba0(%ebx),%esi
    1e05:	0f 44 c6             	cmove  %esi,%eax
    1e08:	51                   	push   %ecx
    1e09:	52                   	push   %edx
    1e0a:	50                   	push   %eax
    1e0b:	8d 83 4c 05 00 00    	lea    0x54c(%ebx),%eax
    1e11:	ff 30                	push   (%eax)
    1e13:	8d 83 69 d4 ff ff    	lea    -0x2b97(%ebx),%eax
    1e19:	50                   	push   %eax
    1e1a:	68 00 20 00 00       	push   $0x2000
    1e1f:	6a 01                	push   $0x1
    1e21:	8d 74 24 28          	lea    0x28(%esp),%esi
    1e25:	56                   	push   %esi
    1e26:	e8 f5 f3 ff ff       	call   1220 <__sprintf_chk@plt>
    1e2b:	83 c4 20             	add    $0x20,%esp
    1e2e:	8d 84 24 0c 20 00 00 	lea    0x200c(%esp),%eax
    1e35:	50                   	push   %eax
    1e36:	6a 00                	push   $0x0
    1e38:	56                   	push   %esi
    1e39:	ff b3 a0 00 00 00    	push   0xa0(%ebx)
    1e3f:	e8 5b 0d 00 00       	call   2b9f <driver_post>
    1e44:	83 c4 10             	add    $0x10,%esp
    1e47:	85 c0                	test   %eax,%eax
    1e49:	78 19                	js     1e64 <send_msg+0xbb>
    1e4b:	8b 84 24 0c 40 00 00 	mov    0x400c(%esp),%eax
    1e52:	65 2b 05 14 00 00 00 	sub    %gs:0x14,%eax
    1e59:	75 25                	jne    1e80 <send_msg+0xd7>
    1e5b:	81 c4 14 40 00 00    	add    $0x4014,%esp
    1e61:	5b                   	pop    %ebx
    1e62:	5e                   	pop    %esi
    1e63:	c3                   	ret    
    1e64:	83 ec 0c             	sub    $0xc,%esp
    1e67:	8d 84 24 18 20 00 00 	lea    0x2018(%esp),%eax
    1e6e:	50                   	push   %eax
    1e6f:	e8 9c f2 ff ff       	call   1110 <puts@plt>
    1e74:	c7 04 24 00 00 00 00 	movl   $0x0,(%esp)
    1e7b:	e8 b0 f2 ff ff       	call   1130 <exit@plt>
    1e80:	e8 ab 0d 00 00       	call   2c30 <__stack_chk_fail_local>

00001e85 <explode_bomb>:
    1e85:	53                   	push   %ebx
    1e86:	83 ec 14             	sub    $0x14,%esp
    1e89:	e8 e2 f3 ff ff       	call   1270 <__x86.get_pc_thunk.bx>
    1e8e:	81 c3 c6 40 00 00    	add    $0x40c6,%ebx
    1e94:	8d 83 75 d4 ff ff    	lea    -0x2b8b(%ebx),%eax
    1e9a:	50                   	push   %eax
    1e9b:	e8 70 f2 ff ff       	call   1110 <puts@plt>
    1ea0:	8d 83 7e d4 ff ff    	lea    -0x2b82(%ebx),%eax
    1ea6:	89 04 24             	mov    %eax,(%esp)
    1ea9:	e8 62 f2 ff ff       	call   1110 <puts@plt>
    1eae:	c7 04 24 00 00 00 00 	movl   $0x0,(%esp)
    1eb5:	e8 ef fe ff ff       	call   1da9 <send_msg>
    1eba:	8d 83 8c d3 ff ff    	lea    -0x2c74(%ebx),%eax
    1ec0:	89 04 24             	mov    %eax,(%esp)
    1ec3:	e8 48 f2 ff ff       	call   1110 <puts@plt>
    1ec8:	c7 04 24 08 00 00 00 	movl   $0x8,(%esp)
    1ecf:	e8 5c f2 ff ff       	call   1130 <exit@plt>

00001ed4 <read_six_numbers>:
    1ed4:	53                   	push   %ebx
    1ed5:	83 ec 08             	sub    $0x8,%esp
    1ed8:	e8 93 f3 ff ff       	call   1270 <__x86.get_pc_thunk.bx>
    1edd:	81 c3 77 40 00 00    	add    $0x4077,%ebx
    1ee3:	8b 44 24 14          	mov    0x14(%esp),%eax
    1ee7:	8d 50 14             	lea    0x14(%eax),%edx
    1eea:	52                   	push   %edx
    1eeb:	8d 50 10             	lea    0x10(%eax),%edx
    1eee:	52                   	push   %edx
    1eef:	8d 50 0c             	lea    0xc(%eax),%edx
    1ef2:	52                   	push   %edx
    1ef3:	8d 50 08             	lea    0x8(%eax),%edx
    1ef6:	52                   	push   %edx
    1ef7:	8d 50 04             	lea    0x4(%eax),%edx
    1efa:	52                   	push   %edx
    1efb:	50                   	push   %eax
    1efc:	8d 83 95 d4 ff ff    	lea    -0x2b6b(%ebx),%eax
    1f02:	50                   	push   %eax
    1f03:	ff 74 24 2c          	push   0x2c(%esp)
    1f07:	e8 64 f2 ff ff       	call   1170 <__isoc99_sscanf@plt>
    1f0c:	83 c4 20             	add    $0x20,%esp
    1f0f:	83 f8 05             	cmp    $0x5,%eax
    1f12:	7e 05                	jle    1f19 <read_six_numbers+0x45>
    1f14:	83 c4 08             	add    $0x8,%esp
    1f17:	5b                   	pop    %ebx
    1f18:	c3                   	ret    
    1f19:	e8 67 ff ff ff       	call   1e85 <explode_bomb>

00001f1e <read_line>:
    1f1e:	57                   	push   %edi
    1f1f:	56                   	push   %esi
    1f20:	53                   	push   %ebx
    1f21:	e8 4a f3 ff ff       	call   1270 <__x86.get_pc_thunk.bx>
    1f26:	81 c3 2e 40 00 00    	add    $0x402e,%ebx
    1f2c:	e8 1c fe ff ff       	call   1d4d <skip>
    1f31:	85 c0                	test   %eax,%eax
    1f33:	74 47                	je     1f7c <read_line+0x5e>
    1f35:	8b b3 5c 08 00 00    	mov    0x85c(%ebx),%esi
    1f3b:	8d 04 b6             	lea    (%esi,%esi,4),%eax
    1f3e:	c1 e0 04             	shl    $0x4,%eax
    1f41:	8d bc 03 6c 08 00 00 	lea    0x86c(%ebx,%eax,1),%edi
    1f48:	83 ec 0c             	sub    $0xc,%esp
    1f4b:	57                   	push   %edi
    1f4c:	e8 ef f1 ff ff       	call   1140 <strlen@plt>
    1f51:	83 c4 10             	add    $0x10,%esp
    1f54:	83 f8 4e             	cmp    $0x4e,%eax
    1f57:	0f 8f a4 00 00 00    	jg     2001 <read_line+0xe3>
    1f5d:	8d 14 b6             	lea    (%esi,%esi,4),%edx
    1f60:	c1 e2 04             	shl    $0x4,%edx
    1f63:	01 d0                	add    %edx,%eax
    1f65:	c6 84 03 6b 08 00 00 	movb   $0x0,0x86b(%ebx,%eax,1)
    1f6c:	00 
    1f6d:	83 c6 01             	add    $0x1,%esi
    1f70:	89 b3 5c 08 00 00    	mov    %esi,0x85c(%ebx)
    1f76:	89 f8                	mov    %edi,%eax
    1f78:	5b                   	pop    %ebx
    1f79:	5e                   	pop    %esi
    1f7a:	5f                   	pop    %edi
    1f7b:	c3                   	ret    
    1f7c:	8d 93 f0 07 00 00    	lea    0x7f0(%ebx),%edx
    1f82:	8b 83 98 00 00 00    	mov    0x98(%ebx),%eax
    1f88:	8b 00                	mov    (%eax),%eax
    1f8a:	39 02                	cmp    %eax,(%edx)
    1f8c:	74 20                	je     1fae <read_line+0x90>
    1f8e:	83 ec 0c             	sub    $0xc,%esp
    1f91:	8d 83 c5 d4 ff ff    	lea    -0x2b3b(%ebx),%eax
    1f97:	50                   	push   %eax
    1f98:	e8 53 f1 ff ff       	call   10f0 <getenv@plt>
    1f9d:	83 c4 10             	add    $0x10,%esp
    1fa0:	85 c0                	test   %eax,%eax
    1fa2:	74 25                	je     1fc9 <read_line+0xab>
    1fa4:	83 ec 0c             	sub    $0xc,%esp
    1fa7:	6a 00                	push   $0x0
    1fa9:	e8 82 f1 ff ff       	call   1130 <exit@plt>
    1fae:	83 ec 0c             	sub    $0xc,%esp
    1fb1:	8d 83 a7 d4 ff ff    	lea    -0x2b59(%ebx),%eax
    1fb7:	50                   	push   %eax
    1fb8:	e8 53 f1 ff ff       	call   1110 <puts@plt>
    1fbd:	c7 04 24 08 00 00 00 	movl   $0x8,(%esp)
    1fc4:	e8 67 f1 ff ff       	call   1130 <exit@plt>
    1fc9:	8b 83 98 00 00 00    	mov    0x98(%ebx),%eax
    1fcf:	8b 10                	mov    (%eax),%edx
    1fd1:	8d 83 f0 07 00 00    	lea    0x7f0(%ebx),%eax
    1fd7:	89 10                	mov    %edx,(%eax)
    1fd9:	e8 6f fd ff ff       	call   1d4d <skip>
    1fde:	85 c0                	test   %eax,%eax
    1fe0:	0f 85 4f ff ff ff    	jne    1f35 <read_line+0x17>
    1fe6:	83 ec 0c             	sub    $0xc,%esp
    1fe9:	8d 83 a7 d4 ff ff    	lea    -0x2b59(%ebx),%eax
    1fef:	50                   	push   %eax
    1ff0:	e8 1b f1 ff ff       	call   1110 <puts@plt>
    1ff5:	c7 04 24 00 00 00 00 	movl   $0x0,(%esp)
    1ffc:	e8 2f f1 ff ff       	call   1130 <exit@plt>
    2001:	83 ec 0c             	sub    $0xc,%esp
    2004:	8d 83 d0 d4 ff ff    	lea    -0x2b30(%ebx),%eax
    200a:	50                   	push   %eax
    200b:	e8 00 f1 ff ff       	call   1110 <puts@plt>
    2010:	8b 83 5c 08 00 00    	mov    0x85c(%ebx),%eax
    2016:	8d 50 01             	lea    0x1(%eax),%edx
    2019:	89 93 5c 08 00 00    	mov    %edx,0x85c(%ebx)
    201f:	6b c0 50             	imul   $0x50,%eax,%eax
    2022:	8d 84 03 6c 08 00 00 	lea    0x86c(%ebx,%eax,1),%eax
    2029:	8d b3 eb d4 ff ff    	lea    -0x2b15(%ebx),%esi
    202f:	b9 04 00 00 00       	mov    $0x4,%ecx
    2034:	89 c7                	mov    %eax,%edi
    2036:	f3 a5                	rep movsl %ds:(%esi),%es:(%edi)
    2038:	e8 48 fe ff ff       	call   1e85 <explode_bomb>

0000203d <phase_defused>:
    203d:	53                   	push   %ebx
    203e:	83 ec 14             	sub    $0x14,%esp
    2041:	e8 2a f2 ff ff       	call   1270 <__x86.get_pc_thunk.bx>
    2046:	81 c3 0e 3f 00 00    	add    $0x3f0e,%ebx
    204c:	6a 01                	push   $0x1
    204e:	e8 56 fd ff ff       	call   1da9 <send_msg>
    2053:	83 c4 10             	add    $0x10,%esp
    2056:	83 bb 5c 08 00 00 0b 	cmpl   $0xb,0x85c(%ebx)
    205d:	74 05                	je     2064 <phase_defused+0x27>
    205f:	83 c4 08             	add    $0x8,%esp
    2062:	5b                   	pop    %ebx
    2063:	c3                   	ret    
    2064:	83 ec 0c             	sub    $0xc,%esp
    2067:	8d 83 b0 d3 ff ff    	lea    -0x2c50(%ebx),%eax
    206d:	50                   	push   %eax
    206e:	e8 9d f0 ff ff       	call   1110 <puts@plt>
    2073:	8d 83 dc d3 ff ff    	lea    -0x2c24(%ebx),%eax
    2079:	89 04 24             	mov    %eax,(%esp)
    207c:	e8 8f f0 ff ff       	call   1110 <puts@plt>
    2081:	83 c4 10             	add    $0x10,%esp
    2084:	eb d9                	jmp    205f <phase_defused+0x22>

00002086 <sigalrm_handler>:
    2086:	53                   	push   %ebx
    2087:	83 ec 08             	sub    $0x8,%esp
    208a:	e8 e1 f1 ff ff       	call   1270 <__x86.get_pc_thunk.bx>
    208f:	81 c3 c5 3e 00 00    	add    $0x3ec5,%ebx
    2095:	6a 00                	push   $0x0
    2097:	8d 83 84 d8 ff ff    	lea    -0x277c(%ebx),%eax
    209d:	50                   	push   %eax
    209e:	6a 01                	push   $0x1
    20a0:	8b 83 8c 00 00 00    	mov    0x8c(%ebx),%eax
    20a6:	ff 30                	push   (%eax)
    20a8:	e8 13 f1 ff ff       	call   11c0 <__fprintf_chk@plt>
    20ad:	c7 04 24 01 00 00 00 	movl   $0x1,(%esp)
    20b4:	e8 77 f0 ff ff       	call   1130 <exit@plt>

000020b9 <rio_readlineb>:
    20b9:	55                   	push   %ebp
    20ba:	57                   	push   %edi
    20bb:	56                   	push   %esi
    20bc:	53                   	push   %ebx
    20bd:	83 ec 1c             	sub    $0x1c,%esp
    20c0:	e8 ab f1 ff ff       	call   1270 <__x86.get_pc_thunk.bx>
    20c5:	81 c3 8f 3e 00 00    	add    $0x3e8f,%ebx
    20cb:	89 d5                	mov    %edx,%ebp
    20cd:	83 f9 01             	cmp    $0x1,%ecx
    20d0:	0f 86 87 00 00 00    	jbe    215d <rio_readlineb+0xa4>
    20d6:	89 c6                	mov    %eax,%esi
    20d8:	8d 44 0a ff          	lea    -0x1(%edx,%ecx,1),%eax
    20dc:	89 44 24 0c          	mov    %eax,0xc(%esp)
    20e0:	c7 44 24 08 01 00 00 	movl   $0x1,0x8(%esp)
    20e7:	00 
    20e8:	8d 7e 0c             	lea    0xc(%esi),%edi
    20eb:	eb 51                	jmp    213e <rio_readlineb+0x85>
    20ed:	e8 9e f0 ff ff       	call   1190 <__errno_location@plt>
    20f2:	83 38 04             	cmpl   $0x4,(%eax)
    20f5:	75 50                	jne    2147 <rio_readlineb+0x8e>
    20f7:	83 ec 04             	sub    $0x4,%esp
    20fa:	68 00 20 00 00       	push   $0x2000
    20ff:	57                   	push   %edi
    2100:	ff 36                	push   (%esi)
    2102:	e8 59 ef ff ff       	call   1060 <read@plt>
    2107:	89 46 04             	mov    %eax,0x4(%esi)
    210a:	83 c4 10             	add    $0x10,%esp
    210d:	85 c0                	test   %eax,%eax
    210f:	78 dc                	js     20ed <rio_readlineb+0x34>
    2111:	74 39                	je     214c <rio_readlineb+0x93>
    2113:	89 7e 08             	mov    %edi,0x8(%esi)
    2116:	8b 56 08             	mov    0x8(%esi),%edx
    2119:	0f b6 0a             	movzbl (%edx),%ecx
    211c:	83 c2 01             	add    $0x1,%edx
    211f:	89 56 08             	mov    %edx,0x8(%esi)
    2122:	83 e8 01             	sub    $0x1,%eax
    2125:	89 46 04             	mov    %eax,0x4(%esi)
    2128:	83 c5 01             	add    $0x1,%ebp
    212b:	88 4d ff             	mov    %cl,-0x1(%ebp)
    212e:	80 f9 0a             	cmp    $0xa,%cl
    2131:	74 38                	je     216b <rio_readlineb+0xb2>
    2133:	83 44 24 08 01       	addl   $0x1,0x8(%esp)
    2138:	3b 6c 24 0c          	cmp    0xc(%esp),%ebp
    213c:	74 29                	je     2167 <rio_readlineb+0xae>
    213e:	8b 46 04             	mov    0x4(%esi),%eax
    2141:	85 c0                	test   %eax,%eax
    2143:	7e b2                	jle    20f7 <rio_readlineb+0x3e>
    2145:	eb cf                	jmp    2116 <rio_readlineb+0x5d>
    2147:	b8 ff ff ff ff       	mov    $0xffffffff,%eax
    214c:	85 c0                	test   %eax,%eax
    214e:	75 2b                	jne    217b <rio_readlineb+0xc2>
    2150:	83 7c 24 08 01       	cmpl   $0x1,0x8(%esp)
    2155:	75 14                	jne    216b <rio_readlineb+0xb2>
    2157:	89 44 24 08          	mov    %eax,0x8(%esp)
    215b:	eb 12                	jmp    216f <rio_readlineb+0xb6>
    215d:	c7 44 24 08 01 00 00 	movl   $0x1,0x8(%esp)
    2164:	00 
    2165:	eb 04                	jmp    216b <rio_readlineb+0xb2>
    2167:	8b 6c 24 0c          	mov    0xc(%esp),%ebp
    216b:	c6 45 00 00          	movb   $0x0,0x0(%ebp)
    216f:	8b 44 24 08          	mov    0x8(%esp),%eax
    2173:	83 c4 1c             	add    $0x1c,%esp
    2176:	5b                   	pop    %ebx
    2177:	5e                   	pop    %esi
    2178:	5f                   	pop    %edi
    2179:	5d                   	pop    %ebp
    217a:	c3                   	ret    
    217b:	c7 44 24 08 ff ff ff 	movl   $0xffffffff,0x8(%esp)
    2182:	ff 
    2183:	eb ea                	jmp    216f <rio_readlineb+0xb6>

00002185 <submitr>:
    2185:	55                   	push   %ebp
    2186:	57                   	push   %edi
    2187:	56                   	push   %esi
    2188:	53                   	push   %ebx
    2189:	8d 84 24 00 60 ff ff 	lea    -0xa000(%esp),%eax
    2190:	81 ec 00 10 00 00    	sub    $0x1000,%esp
    2196:	83 0c 24 00          	orl    $0x0,(%esp)
    219a:	39 c4                	cmp    %eax,%esp
    219c:	75 f2                	jne    2190 <submitr+0xb>
    219e:	83 ec 60             	sub    $0x60,%esp
    21a1:	e8 ca f0 ff ff       	call   1270 <__x86.get_pc_thunk.bx>
    21a6:	81 c3 ae 3d 00 00    	add    $0x3dae,%ebx
    21ac:	8b b4 24 74 a0 00 00 	mov    0xa074(%esp),%esi
    21b3:	8b 84 24 7c a0 00 00 	mov    0xa07c(%esp),%eax
    21ba:	89 44 24 08          	mov    %eax,0x8(%esp)
    21be:	8b 84 24 80 a0 00 00 	mov    0xa080(%esp),%eax
    21c5:	89 44 24 0c          	mov    %eax,0xc(%esp)
    21c9:	8b 84 24 84 a0 00 00 	mov    0xa084(%esp),%eax
    21d0:	89 44 24 10          	mov    %eax,0x10(%esp)
    21d4:	8b 84 24 88 a0 00 00 	mov    0xa088(%esp),%eax
    21db:	89 44 24 04          	mov    %eax,0x4(%esp)
    21df:	8b 84 24 8c a0 00 00 	mov    0xa08c(%esp),%eax
    21e6:	89 44 24 14          	mov    %eax,0x14(%esp)
    21ea:	65 a1 14 00 00 00    	mov    %gs:0x14,%eax
    21f0:	89 84 24 50 a0 00 00 	mov    %eax,0xa050(%esp)
    21f7:	31 c0                	xor    %eax,%eax
    21f9:	c7 44 24 30 00 00 00 	movl   $0x0,0x30(%esp)
    2200:	00 
    2201:	6a 00                	push   $0x0
    2203:	6a 01                	push   $0x1
    2205:	6a 02                	push   $0x2
    2207:	e8 a4 ef ff ff       	call   11b0 <socket@plt>
    220c:	83 c4 10             	add    $0x10,%esp
    220f:	85 c0                	test   %eax,%eax
    2211:	0f 88 2b 01 00 00    	js     2342 <submitr+0x1bd>
    2217:	89 c5                	mov    %eax,%ebp
    2219:	83 ec 0c             	sub    $0xc,%esp
    221c:	56                   	push   %esi
    221d:	e8 ae ef ff ff       	call   11d0 <gethostbyname@plt>
    2222:	83 c4 10             	add    $0x10,%esp
    2225:	85 c0                	test   %eax,%eax
    2227:	0f 84 67 01 00 00    	je     2394 <submitr+0x20f>
    222d:	8d 74 24 30          	lea    0x30(%esp),%esi
    2231:	c7 44 24 30 00 00 00 	movl   $0x0,0x30(%esp)
    2238:	00 
    2239:	c7 44 24 34 00 00 00 	movl   $0x0,0x34(%esp)
    2240:	00 
    2241:	c7 44 24 38 00 00 00 	movl   $0x0,0x38(%esp)
    2248:	00 
    2249:	c7 44 24 3c 00 00 00 	movl   $0x0,0x3c(%esp)
    2250:	00 
    2251:	66 c7 44 24 30 02 00 	movw   $0x2,0x30(%esp)
    2258:	6a 0c                	push   $0xc
    225a:	ff 70 0c             	push   0xc(%eax)
    225d:	8b 40 10             	mov    0x10(%eax),%eax
    2260:	ff 30                	push   (%eax)
    2262:	8d 44 24 40          	lea    0x40(%esp),%eax
    2266:	50                   	push   %eax
    2267:	e8 b4 ee ff ff       	call   1120 <__memmove_chk@plt>
    226c:	0f b7 84 24 84 a0 00 	movzwl 0xa084(%esp),%eax
    2273:	00 
    2274:	66 c1 c0 08          	rol    $0x8,%ax
    2278:	66 89 44 24 42       	mov    %ax,0x42(%esp)
    227d:	83 c4 0c             	add    $0xc,%esp
    2280:	6a 10                	push   $0x10
    2282:	56                   	push   %esi
    2283:	55                   	push   %ebp
    2284:	e8 67 ef ff ff       	call   11f0 <connect@plt>
    2289:	83 c4 10             	add    $0x10,%esp
    228c:	85 c0                	test   %eax,%eax
    228e:	0f 88 70 01 00 00    	js     2404 <submitr+0x27f>
    2294:	83 ec 0c             	sub    $0xc,%esp
    2297:	ff 74 24 0c          	push   0xc(%esp)
    229b:	e8 a0 ee ff ff       	call   1140 <strlen@plt>
    22a0:	83 c4 04             	add    $0x4,%esp
    22a3:	89 c6                	mov    %eax,%esi
    22a5:	ff 74 24 10          	push   0x10(%esp)
    22a9:	e8 92 ee ff ff       	call   1140 <strlen@plt>
    22ae:	83 c4 04             	add    $0x4,%esp
    22b1:	89 44 24 20          	mov    %eax,0x20(%esp)
    22b5:	ff 74 24 14          	push   0x14(%esp)
    22b9:	e8 82 ee ff ff       	call   1140 <strlen@plt>
    22be:	83 c4 04             	add    $0x4,%esp
    22c1:	89 c7                	mov    %eax,%edi
    22c3:	ff 74 24 18          	push   0x18(%esp)
    22c7:	e8 74 ee ff ff       	call   1140 <strlen@plt>
    22cc:	83 c4 10             	add    $0x10,%esp
    22cf:	89 c2                	mov    %eax,%edx
    22d1:	8b 44 24 14          	mov    0x14(%esp),%eax
    22d5:	8d 84 38 80 00 00 00 	lea    0x80(%eax,%edi,1),%eax
    22dc:	01 d0                	add    %edx,%eax
    22de:	8d 14 76             	lea    (%esi,%esi,2),%edx
    22e1:	01 d0                	add    %edx,%eax
    22e3:	3d 00 20 00 00       	cmp    $0x2000,%eax
    22e8:	0f 87 78 01 00 00    	ja     2466 <submitr+0x2e1>
    22ee:	8d 94 24 4c 40 00 00 	lea    0x404c(%esp),%edx
    22f5:	b9 00 08 00 00       	mov    $0x800,%ecx
    22fa:	b8 00 00 00 00       	mov    $0x0,%eax
    22ff:	89 d7                	mov    %edx,%edi
    2301:	f3 ab                	rep stos %eax,%es:(%edi)
    2303:	83 ec 0c             	sub    $0xc,%esp
    2306:	8b 74 24 0c          	mov    0xc(%esp),%esi
    230a:	56                   	push   %esi
    230b:	e8 30 ee ff ff       	call   1140 <strlen@plt>
    2310:	83 c4 10             	add    $0x10,%esp
    2313:	85 c0                	test   %eax,%eax
    2315:	0f 84 6c 02 00 00    	je     2587 <submitr+0x402>
    231b:	8d bc 24 4c 40 00 00 	lea    0x404c(%esp),%edi
    2322:	8d 8b 8e d9 ff ff    	lea    -0x2672(%ebx),%ecx
    2328:	89 4c 24 18          	mov    %ecx,0x18(%esp)
    232c:	8d 8c 24 4c 80 00 00 	lea    0x804c(%esp),%ecx
    2333:	89 4c 24 1c          	mov    %ecx,0x1c(%esp)
    2337:	89 6c 24 14          	mov    %ebp,0x14(%esp)
    233b:	89 c5                	mov    %eax,%ebp
    233d:	e9 b8 01 00 00       	jmp    24fa <submitr+0x375>
    2342:	8b 44 24 10          	mov    0x10(%esp),%eax
    2346:	c7 00 45 72 72 6f    	movl   $0x6f727245,(%eax)
    234c:	c7 40 04 72 3a 20 43 	movl   $0x43203a72,0x4(%eax)
    2353:	c7 40 08 6c 69 65 6e 	movl   $0x6e65696c,0x8(%eax)
    235a:	c7 40 0c 74 20 75 6e 	movl   $0x6e752074,0xc(%eax)
    2361:	c7 40 10 61 62 6c 65 	movl   $0x656c6261,0x10(%eax)
    2368:	c7 40 14 20 74 6f 20 	movl   $0x206f7420,0x14(%eax)
    236f:	c7 40 18 63 72 65 61 	movl   $0x61657263,0x18(%eax)
    2376:	c7 40 1c 74 65 20 73 	movl   $0x73206574,0x1c(%eax)
    237d:	c7 40 20 6f 63 6b 65 	movl   $0x656b636f,0x20(%eax)
    2384:	66 c7 40 24 74 00    	movw   $0x74,0x24(%eax)
    238a:	b8 ff ff ff ff       	mov    $0xffffffff,%eax
    238f:	e9 80 04 00 00       	jmp    2814 <submitr+0x68f>
    2394:	8b 44 24 10          	mov    0x10(%esp),%eax
    2398:	c7 00 45 72 72 6f    	movl   $0x6f727245,(%eax)
    239e:	c7 40 04 72 3a 20 44 	movl   $0x44203a72,0x4(%eax)
    23a5:	c7 40 08 4e 53 20 69 	movl   $0x6920534e,0x8(%eax)
    23ac:	c7 40 0c 73 20 75 6e 	movl   $0x6e752073,0xc(%eax)
    23b3:	c7 40 10 61 62 6c 65 	movl   $0x656c6261,0x10(%eax)
    23ba:	c7 40 14 20 74 6f 20 	movl   $0x206f7420,0x14(%eax)
    23c1:	c7 40 18 72 65 73 6f 	movl   $0x6f736572,0x18(%eax)
    23c8:	c7 40 1c 6c 76 65 20 	movl   $0x2065766c,0x1c(%eax)
    23cf:	c7 40 20 73 65 72 76 	movl   $0x76726573,0x20(%eax)
    23d6:	c7 40 24 65 72 20 61 	movl   $0x61207265,0x24(%eax)
    23dd:	c7 40 28 64 64 72 65 	movl   $0x65726464,0x28(%eax)
    23e4:	66 c7 40 2c 73 73    	movw   $0x7373,0x2c(%eax)
    23ea:	c6 40 2e 00          	movb   $0x0,0x2e(%eax)
    23ee:	83 ec 0c             	sub    $0xc,%esp
    23f1:	55                   	push   %ebp
    23f2:	e8 09 ee ff ff       	call   1200 <close@plt>
    23f7:	83 c4 10             	add    $0x10,%esp
    23fa:	b8 ff ff ff ff       	mov    $0xffffffff,%eax
    23ff:	e9 10 04 00 00       	jmp    2814 <submitr+0x68f>
    2404:	8b 44 24 10          	mov    0x10(%esp),%eax
    2408:	c7 00 45 72 72 6f    	movl   $0x6f727245,(%eax)
    240e:	c7 40 04 72 3a 20 55 	movl   $0x55203a72,0x4(%eax)
    2415:	c7 40 08 6e 61 62 6c 	movl   $0x6c62616e,0x8(%eax)
    241c:	c7 40 0c 65 20 74 6f 	movl   $0x6f742065,0xc(%eax)
    2423:	c7 40 10 20 63 6f 6e 	movl   $0x6e6f6320,0x10(%eax)
    242a:	c7 40 14 6e 65 63 74 	movl   $0x7463656e,0x14(%eax)
    2431:	c7 40 18 20 74 6f 20 	movl   $0x206f7420,0x18(%eax)
    2438:	c7 40 1c 74 68 65 20 	movl   $0x20656874,0x1c(%eax)
    243f:	c7 40 20 73 65 72 76 	movl   $0x76726573,0x20(%eax)
    2446:	66 c7 40 24 65 72    	movw   $0x7265,0x24(%eax)
    244c:	c6 40 26 00          	movb   $0x0,0x26(%eax)
    2450:	83 ec 0c             	sub    $0xc,%esp
    2453:	55                   	push   %ebp
    2454:	e8 a7 ed ff ff       	call   1200 <close@plt>
    2459:	83 c4 10             	add    $0x10,%esp
    245c:	b8 ff ff ff ff       	mov    $0xffffffff,%eax
    2461:	e9 ae 03 00 00       	jmp    2814 <submitr+0x68f>
    2466:	8b 44 24 10          	mov    0x10(%esp),%eax
    246a:	c7 00 45 72 72 6f    	movl   $0x6f727245,(%eax)
    2470:	c7 40 04 72 3a 20 52 	movl   $0x52203a72,0x4(%eax)
    2477:	c7 40 08 65 73 75 6c 	movl   $0x6c757365,0x8(%eax)
    247e:	c7 40 0c 74 20 73 74 	movl   $0x74732074,0xc(%eax)
    2485:	c7 40 10 72 69 6e 67 	movl   $0x676e6972,0x10(%eax)
    248c:	c7 40 14 20 74 6f 6f 	movl   $0x6f6f7420,0x14(%eax)
    2493:	c7 40 18 20 6c 61 72 	movl   $0x72616c20,0x18(%eax)
    249a:	c7 40 1c 67 65 2e 20 	movl   $0x202e6567,0x1c(%eax)
    24a1:	c7 40 20 49 6e 63 72 	movl   $0x72636e49,0x20(%eax)
    24a8:	c7 40 24 65 61 73 65 	movl   $0x65736165,0x24(%eax)
    24af:	c7 40 28 20 53 55 42 	movl   $0x42555320,0x28(%eax)
    24b6:	c7 40 2c 4d 49 54 52 	movl   $0x5254494d,0x2c(%eax)
    24bd:	c7 40 30 5f 4d 41 58 	movl   $0x58414d5f,0x30(%eax)
    24c4:	c7 40 34 42 55 46 00 	movl   $0x465542,0x34(%eax)
    24cb:	83 ec 0c             	sub    $0xc,%esp
    24ce:	55                   	push   %ebp
    24cf:	e8 2c ed ff ff       	call   1200 <close@plt>
    24d4:	83 c4 10             	add    $0x10,%esp
    24d7:	b8 ff ff ff ff       	mov    $0xffffffff,%eax
    24dc:	e9 33 03 00 00       	jmp    2814 <submitr+0x68f>
    24e1:	3c 5f                	cmp    $0x5f,%al
    24e3:	75 7e                	jne    2563 <submitr+0x3de>
    24e5:	88 07                	mov    %al,(%edi)
    24e7:	8d 7f 01             	lea    0x1(%edi),%edi
    24ea:	83 c6 01             	add    $0x1,%esi
    24ed:	8b 04 24             	mov    (%esp),%eax
    24f0:	01 e8                	add    %ebp,%eax
    24f2:	39 c6                	cmp    %eax,%esi
    24f4:	0f 84 89 00 00 00    	je     2583 <submitr+0x3fe>
    24fa:	0f b6 06             	movzbl (%esi),%eax
    24fd:	8d 50 d6             	lea    -0x2a(%eax),%edx
    2500:	80 fa 0f             	cmp    $0xf,%dl
    2503:	77 dc                	ja     24e1 <submitr+0x35c>
    2505:	b9 d9 ff 00 00       	mov    $0xffd9,%ecx
    250a:	0f a3 d1             	bt     %edx,%ecx
    250d:	72 d6                	jb     24e5 <submitr+0x360>
    250f:	3c 5f                	cmp    $0x5f,%al
    2511:	74 d2                	je     24e5 <submitr+0x360>
    2513:	8d 50 e0             	lea    -0x20(%eax),%edx
    2516:	80 fa 5f             	cmp    $0x5f,%dl
    2519:	76 08                	jbe    2523 <submitr+0x39e>
    251b:	3c 09                	cmp    $0x9,%al
    251d:	0f 85 f1 03 00 00    	jne    2914 <submitr+0x78f>
    2523:	83 ec 0c             	sub    $0xc,%esp
    2526:	0f b6 c0             	movzbl %al,%eax
    2529:	50                   	push   %eax
    252a:	ff 74 24 28          	push   0x28(%esp)
    252e:	6a 08                	push   $0x8
    2530:	6a 01                	push   $0x1
    2532:	ff 74 24 38          	push   0x38(%esp)
    2536:	e8 e5 ec ff ff       	call   1220 <__sprintf_chk@plt>
    253b:	0f b6 84 24 6c 80 00 	movzbl 0x806c(%esp),%eax
    2542:	00 
    2543:	88 07                	mov    %al,(%edi)
    2545:	0f b6 84 24 6d 80 00 	movzbl 0x806d(%esp),%eax
    254c:	00 
    254d:	88 47 01             	mov    %al,0x1(%edi)
    2550:	0f b6 84 24 6e 80 00 	movzbl 0x806e(%esp),%eax
    2557:	00 
    2558:	88 47 02             	mov    %al,0x2(%edi)
    255b:	83 c4 20             	add    $0x20,%esp
    255e:	8d 7f 03             	lea    0x3(%edi),%edi
    2561:	eb 87                	jmp    24ea <submitr+0x365>
    2563:	89 c2                	mov    %eax,%edx
    2565:	83 e2 df             	and    $0xffffffdf,%edx
    2568:	83 ea 41             	sub    $0x41,%edx
    256b:	80 fa 19             	cmp    $0x19,%dl
    256e:	0f 86 71 ff ff ff    	jbe    24e5 <submitr+0x360>
    2574:	3c 20                	cmp    $0x20,%al
    2576:	75 9b                	jne    2513 <submitr+0x38e>
    2578:	c6 07 2b             	movb   $0x2b,(%edi)
    257b:	8d 7f 01             	lea    0x1(%edi),%edi
    257e:	e9 67 ff ff ff       	jmp    24ea <submitr+0x365>
    2583:	8b 6c 24 14          	mov    0x14(%esp),%ebp
    2587:	8d 84 24 4c 40 00 00 	lea    0x404c(%esp),%eax
    258e:	50                   	push   %eax
    258f:	ff 74 24 10          	push   0x10(%esp)
    2593:	ff 74 24 10          	push   0x10(%esp)
    2597:	ff 74 24 10          	push   0x10(%esp)
    259b:	8d 83 1c d9 ff ff    	lea    -0x26e4(%ebx),%eax
    25a1:	50                   	push   %eax
    25a2:	68 00 20 00 00       	push   $0x2000
    25a7:	6a 01                	push   $0x1
    25a9:	8d b4 24 68 20 00 00 	lea    0x2068(%esp),%esi
    25b0:	56                   	push   %esi
    25b1:	e8 6a ec ff ff       	call   1220 <__sprintf_chk@plt>
    25b6:	83 c4 14             	add    $0x14,%esp
    25b9:	56                   	push   %esi
    25ba:	e8 81 eb ff ff       	call   1140 <strlen@plt>
    25bf:	83 c4 10             	add    $0x10,%esp
    25c2:	89 c6                	mov    %eax,%esi
    25c4:	8d bc 24 4c 20 00 00 	lea    0x204c(%esp),%edi
    25cb:	85 c0                	test   %eax,%eax
    25cd:	0f 85 20 01 00 00    	jne    26f3 <submitr+0x56e>
    25d3:	89 6c 24 40          	mov    %ebp,0x40(%esp)
    25d7:	c7 44 24 44 00 00 00 	movl   $0x0,0x44(%esp)
    25de:	00 
    25df:	8d 44 24 40          	lea    0x40(%esp),%eax
    25e3:	8d 54 24 4c          	lea    0x4c(%esp),%edx
    25e7:	89 54 24 48          	mov    %edx,0x48(%esp)
    25eb:	8d 94 24 4c 20 00 00 	lea    0x204c(%esp),%edx
    25f2:	b9 00 20 00 00       	mov    $0x2000,%ecx
    25f7:	e8 bd fa ff ff       	call   20b9 <rio_readlineb>
    25fc:	85 c0                	test   %eax,%eax
    25fe:	0f 8e 16 01 00 00    	jle    271a <submitr+0x595>
    2604:	83 ec 0c             	sub    $0xc,%esp
    2607:	8d 84 24 58 80 00 00 	lea    0x8058(%esp),%eax
    260e:	50                   	push   %eax
    260f:	8d 44 24 3c          	lea    0x3c(%esp),%eax
    2613:	50                   	push   %eax
    2614:	8d 84 24 60 60 00 00 	lea    0x6060(%esp),%eax
    261b:	50                   	push   %eax
    261c:	8d 83 95 d9 ff ff    	lea    -0x266b(%ebx),%eax
    2622:	50                   	push   %eax
    2623:	8d 84 24 68 20 00 00 	lea    0x2068(%esp),%eax
    262a:	50                   	push   %eax
    262b:	e8 40 eb ff ff       	call   1170 <__isoc99_sscanf@plt>
    2630:	8b 44 24 4c          	mov    0x4c(%esp),%eax
    2634:	83 c4 20             	add    $0x20,%esp
    2637:	3d c8 00 00 00       	cmp    $0xc8,%eax
    263c:	0f 85 52 01 00 00    	jne    2794 <submitr+0x60f>
    2642:	8d bb a6 d9 ff ff    	lea    -0x265a(%ebx),%edi
    2648:	8d b4 24 4c 20 00 00 	lea    0x204c(%esp),%esi
    264f:	83 ec 08             	sub    $0x8,%esp
    2652:	57                   	push   %edi
    2653:	56                   	push   %esi
    2654:	e8 e7 e9 ff ff       	call   1040 <strcmp@plt>
    2659:	83 c4 10             	add    $0x10,%esp
    265c:	85 c0                	test   %eax,%eax
    265e:	0f 84 63 01 00 00    	je     27c7 <submitr+0x642>
    2664:	8d 44 24 40          	lea    0x40(%esp),%eax
    2668:	b9 00 20 00 00       	mov    $0x2000,%ecx
    266d:	89 f2                	mov    %esi,%edx
    266f:	e8 45 fa ff ff       	call   20b9 <rio_readlineb>
    2674:	85 c0                	test   %eax,%eax
    2676:	7f d7                	jg     264f <submitr+0x4ca>
    2678:	8b 44 24 10          	mov    0x10(%esp),%eax
    267c:	c7 00 45 72 72 6f    	movl   $0x6f727245,(%eax)
    2682:	c7 40 04 72 3a 20 43 	movl   $0x43203a72,0x4(%eax)
    2689:	c7 40 08 6c 69 65 6e 	movl   $0x6e65696c,0x8(%eax)
    2690:	c7 40 0c 74 20 75 6e 	movl   $0x6e752074,0xc(%eax)
    2697:	c7 40 10 61 62 6c 65 	movl   $0x656c6261,0x10(%eax)
    269e:	c7 40 14 20 74 6f 20 	movl   $0x206f7420,0x14(%eax)
    26a5:	c7 40 18 72 65 61 64 	movl   $0x64616572,0x18(%eax)
    26ac:	c7 40 1c 20 68 65 61 	movl   $0x61656820,0x1c(%eax)
    26b3:	c7 40 20 64 65 72 73 	movl   $0x73726564,0x20(%eax)
    26ba:	c7 40 24 20 66 72 6f 	movl   $0x6f726620,0x24(%eax)
    26c1:	c7 40 28 6d 20 73 65 	movl   $0x6573206d,0x28(%eax)
    26c8:	c7 40 2c 72 76 65 72 	movl   $0x72657672,0x2c(%eax)
    26cf:	c6 40 30 00          	movb   $0x0,0x30(%eax)
    26d3:	83 ec 0c             	sub    $0xc,%esp
    26d6:	55                   	push   %ebp
    26d7:	e8 24 eb ff ff       	call   1200 <close@plt>
    26dc:	83 c4 10             	add    $0x10,%esp
    26df:	b8 ff ff ff ff       	mov    $0xffffffff,%eax
    26e4:	e9 2b 01 00 00       	jmp    2814 <submitr+0x68f>
    26e9:	01 c7                	add    %eax,%edi
    26eb:	29 c6                	sub    %eax,%esi
    26ed:	0f 84 e0 fe ff ff    	je     25d3 <submitr+0x44e>
    26f3:	83 ec 04             	sub    $0x4,%esp
    26f6:	56                   	push   %esi
    26f7:	57                   	push   %edi
    26f8:	55                   	push   %ebp
    26f9:	e8 52 ea ff ff       	call   1150 <write@plt>
    26fe:	83 c4 10             	add    $0x10,%esp
    2701:	85 c0                	test   %eax,%eax
    2703:	7f e4                	jg     26e9 <submitr+0x564>
    2705:	e8 86 ea ff ff       	call   1190 <__errno_location@plt>
    270a:	83 38 04             	cmpl   $0x4,(%eax)
    270d:	0f 85 9b 01 00 00    	jne    28ae <submitr+0x729>
    2713:	b8 00 00 00 00       	mov    $0x0,%eax
    2718:	eb cf                	jmp    26e9 <submitr+0x564>
    271a:	8b 44 24 10          	mov    0x10(%esp),%eax
    271e:	c7 00 45 72 72 6f    	movl   $0x6f727245,(%eax)
    2724:	c7 40 04 72 3a 20 43 	movl   $0x43203a72,0x4(%eax)
    272b:	c7 40 08 6c 69 65 6e 	movl   $0x6e65696c,0x8(%eax)
    2732:	c7 40 0c 74 20 75 6e 	movl   $0x6e752074,0xc(%eax)
    2739:	c7 40 10 61 62 6c 65 	movl   $0x656c6261,0x10(%eax)
    2740:	c7 40 14 20 74 6f 20 	movl   $0x206f7420,0x14(%eax)
    2747:	c7 40 18 72 65 61 64 	movl   $0x64616572,0x18(%eax)
    274e:	c7 40 1c 20 66 69 72 	movl   $0x72696620,0x1c(%eax)
    2755:	c7 40 20 73 74 20 68 	movl   $0x68207473,0x20(%eax)
    275c:	c7 40 24 65 61 64 65 	movl   $0x65646165,0x24(%eax)
    2763:	c7 40 28 72 20 66 72 	movl   $0x72662072,0x28(%eax)
    276a:	c7 40 2c 6f 6d 20 73 	movl   $0x73206d6f,0x2c(%eax)
    2771:	c7 40 30 65 72 76 65 	movl   $0x65767265,0x30(%eax)
    2778:	66 c7 40 34 72 00    	movw   $0x72,0x34(%eax)
    277e:	83 ec 0c             	sub    $0xc,%esp
    2781:	55                   	push   %ebp
    2782:	e8 79 ea ff ff       	call   1200 <close@plt>
    2787:	83 c4 10             	add    $0x10,%esp
    278a:	b8 ff ff ff ff       	mov    $0xffffffff,%eax
    278f:	e9 80 00 00 00       	jmp    2814 <submitr+0x68f>
    2794:	83 ec 08             	sub    $0x8,%esp
    2797:	8d 94 24 54 80 00 00 	lea    0x8054(%esp),%edx
    279e:	52                   	push   %edx
    279f:	50                   	push   %eax
    27a0:	8d 83 a8 d8 ff ff    	lea    -0x2758(%ebx),%eax
    27a6:	50                   	push   %eax
    27a7:	6a ff                	push   $0xffffffff
    27a9:	6a 01                	push   $0x1
    27ab:	ff 74 24 2c          	push   0x2c(%esp)
    27af:	e8 6c ea ff ff       	call   1220 <__sprintf_chk@plt>
    27b4:	83 c4 14             	add    $0x14,%esp
    27b7:	55                   	push   %ebp
    27b8:	e8 43 ea ff ff       	call   1200 <close@plt>
    27bd:	83 c4 10             	add    $0x10,%esp
    27c0:	b8 ff ff ff ff       	mov    $0xffffffff,%eax
    27c5:	eb 4d                	jmp    2814 <submitr+0x68f>
    27c7:	8d 94 24 4c 20 00 00 	lea    0x204c(%esp),%edx
    27ce:	8d 44 24 40          	lea    0x40(%esp),%eax
    27d2:	b9 00 20 00 00       	mov    $0x2000,%ecx
    27d7:	e8 dd f8 ff ff       	call   20b9 <rio_readlineb>
    27dc:	85 c0                	test   %eax,%eax
    27de:	7e 53                	jle    2833 <submitr+0x6ae>
    27e0:	83 ec 08             	sub    $0x8,%esp
    27e3:	8d 84 24 54 20 00 00 	lea    0x2054(%esp),%eax
    27ea:	50                   	push   %eax
    27eb:	8b 7c 24 1c          	mov    0x1c(%esp),%edi
    27ef:	57                   	push   %edi
    27f0:	e8 db e8 ff ff       	call   10d0 <strcpy@plt>
    27f5:	89 2c 24             	mov    %ebp,(%esp)
    27f8:	e8 03 ea ff ff       	call   1200 <close@plt>
    27fd:	83 c4 08             	add    $0x8,%esp
    2800:	8d 83 a9 d9 ff ff    	lea    -0x2657(%ebx),%eax
    2806:	50                   	push   %eax
    2807:	57                   	push   %edi
    2808:	e8 33 e8 ff ff       	call   1040 <strcmp@plt>
    280d:	83 c4 10             	add    $0x10,%esp
    2810:	f7 d8                	neg    %eax
    2812:	19 c0                	sbb    %eax,%eax
    2814:	8b 94 24 4c a0 00 00 	mov    0xa04c(%esp),%edx
    281b:	65 2b 15 14 00 00 00 	sub    %gs:0x14,%edx
    2822:	0f 85 37 01 00 00    	jne    295f <submitr+0x7da>
    2828:	81 c4 5c a0 00 00    	add    $0xa05c,%esp
    282e:	5b                   	pop    %ebx
    282f:	5e                   	pop    %esi
    2830:	5f                   	pop    %edi
    2831:	5d                   	pop    %ebp
    2832:	c3                   	ret    
    2833:	8b 44 24 10          	mov    0x10(%esp),%eax
    2837:	c7 00 45 72 72 6f    	movl   $0x6f727245,(%eax)
    283d:	c7 40 04 72 3a 20 43 	movl   $0x43203a72,0x4(%eax)
    2844:	c7 40 08 6c 69 65 6e 	movl   $0x6e65696c,0x8(%eax)
    284b:	c7 40 0c 74 20 75 6e 	movl   $0x6e752074,0xc(%eax)
    2852:	c7 40 10 61 62 6c 65 	movl   $0x656c6261,0x10(%eax)
    2859:	c7 40 14 20 74 6f 20 	movl   $0x206f7420,0x14(%eax)
    2860:	c7 40 18 72 65 61 64 	movl   $0x64616572,0x18(%eax)
    2867:	c7 40 1c 20 73 74 61 	movl   $0x61747320,0x1c(%eax)
    286e:	c7 40 20 74 75 73 20 	movl   $0x20737574,0x20(%eax)
    2875:	c7 40 24 6d 65 73 73 	movl   $0x7373656d,0x24(%eax)
    287c:	c7 40 28 61 67 65 20 	movl   $0x20656761,0x28(%eax)
    2883:	c7 40 2c 66 72 6f 6d 	movl   $0x6d6f7266,0x2c(%eax)
    288a:	c7 40 30 20 73 65 72 	movl   $0x72657320,0x30(%eax)
    2891:	c7 40 34 76 65 72 00 	movl   $0x726576,0x34(%eax)
    2898:	83 ec 0c             	sub    $0xc,%esp
    289b:	55                   	push   %ebp
    289c:	e8 5f e9 ff ff       	call   1200 <close@plt>
    28a1:	83 c4 10             	add    $0x10,%esp
    28a4:	b8 ff ff ff ff       	mov    $0xffffffff,%eax
    28a9:	e9 66 ff ff ff       	jmp    2814 <submitr+0x68f>
    28ae:	8b 44 24 10          	mov    0x10(%esp),%eax
    28b2:	c7 00 45 72 72 6f    	movl   $0x6f727245,(%eax)
    28b8:	c7 40 04 72 3a 20 43 	movl   $0x43203a72,0x4(%eax)
    28bf:	c7 40 08 6c 69 65 6e 	movl   $0x6e65696c,0x8(%eax)
    28c6:	c7 40 0c 74 20 75 6e 	movl   $0x6e752074,0xc(%eax)
    28cd:	c7 40 10 61 62 6c 65 	movl   $0x656c6261,0x10(%eax)
    28d4:	c7 40 14 20 74 6f 20 	movl   $0x206f7420,0x14(%eax)
    28db:	c7 40 18 77 72 69 74 	movl   $0x74697277,0x18(%eax)
    28e2:	c7 40 1c 65 20 74 6f 	movl   $0x6f742065,0x1c(%eax)
    28e9:	c7 40 20 20 74 68 65 	movl   $0x65687420,0x20(%eax)
    28f0:	c7 40 24 20 73 65 72 	movl   $0x72657320,0x24(%eax)
    28f7:	c7 40 28 76 65 72 00 	movl   $0x726576,0x28(%eax)
    28fe:	83 ec 0c             	sub    $0xc,%esp
    2901:	55                   	push   %ebp
    2902:	e8 f9 e8 ff ff       	call   1200 <close@plt>
    2907:	83 c4 10             	add    $0x10,%esp
    290a:	b8 ff ff ff ff       	mov    $0xffffffff,%eax
    290f:	e9 00 ff ff ff       	jmp    2814 <submitr+0x68f>
    2914:	8b 6c 24 14          	mov    0x14(%esp),%ebp
    2918:	8b 83 d8 d8 ff ff    	mov    -0x2728(%ebx),%eax
    291e:	8b 4c 24 10          	mov    0x10(%esp),%ecx
    2922:	89 01                	mov    %eax,(%ecx)
    2924:	8b 83 17 d9 ff ff    	mov    -0x26e9(%ebx),%eax
    292a:	89 41 3f             	mov    %eax,0x3f(%ecx)
    292d:	89 c8                	mov    %ecx,%eax
    292f:	8d 79 04             	lea    0x4(%ecx),%edi
    2932:	83 e7 fc             	and    $0xfffffffc,%edi
    2935:	29 f8                	sub    %edi,%eax
    2937:	8d b3 d8 d8 ff ff    	lea    -0x2728(%ebx),%esi
    293d:	29 c6                	sub    %eax,%esi
    293f:	83 c0 43             	add    $0x43,%eax
    2942:	c1 e8 02             	shr    $0x2,%eax
    2945:	89 c1                	mov    %eax,%ecx
    2947:	f3 a5                	rep movsl %ds:(%esi),%es:(%edi)
    2949:	83 ec 0c             	sub    $0xc,%esp
    294c:	55                   	push   %ebp
    294d:	e8 ae e8 ff ff       	call   1200 <close@plt>
    2952:	83 c4 10             	add    $0x10,%esp
    2955:	b8 ff ff ff ff       	mov    $0xffffffff,%eax
    295a:	e9 b5 fe ff ff       	jmp    2814 <submitr+0x68f>
    295f:	e8 cc 02 00 00       	call   2c30 <__stack_chk_fail_local>

00002964 <init_timeout>:
    2964:	56                   	push   %esi
    2965:	53                   	push   %ebx
    2966:	83 ec 04             	sub    $0x4,%esp
    2969:	e8 02 e9 ff ff       	call   1270 <__x86.get_pc_thunk.bx>
    296e:	81 c3 e6 35 00 00    	add    $0x35e6,%ebx
    2974:	8b 74 24 10          	mov    0x10(%esp),%esi
    2978:	85 f6                	test   %esi,%esi
    297a:	75 06                	jne    2982 <init_timeout+0x1e>
    297c:	83 c4 04             	add    $0x4,%esp
    297f:	5b                   	pop    %ebx
    2980:	5e                   	pop    %esi
    2981:	c3                   	ret    
    2982:	83 ec 08             	sub    $0x8,%esp
    2985:	8d 83 32 c1 ff ff    	lea    -0x3ece(%ebx),%eax
    298b:	50                   	push   %eax
    298c:	6a 0e                	push   $0xe
    298e:	e8 fd e6 ff ff       	call   1090 <signal@plt>
    2993:	85 f6                	test   %esi,%esi
    2995:	b8 00 00 00 00       	mov    $0x0,%eax
    299a:	0f 48 f0             	cmovs  %eax,%esi
    299d:	89 34 24             	mov    %esi,(%esp)
    29a0:	e8 0b e7 ff ff       	call   10b0 <alarm@plt>
    29a5:	83 c4 10             	add    $0x10,%esp
    29a8:	eb d2                	jmp    297c <init_timeout+0x18>

000029aa <init_driver>:
    29aa:	55                   	push   %ebp
    29ab:	57                   	push   %edi
    29ac:	56                   	push   %esi
    29ad:	53                   	push   %ebx
    29ae:	83 ec 34             	sub    $0x34,%esp
    29b1:	e8 ba e8 ff ff       	call   1270 <__x86.get_pc_thunk.bx>
    29b6:	81 c3 9e 35 00 00    	add    $0x359e,%ebx
    29bc:	8b 7c 24 48          	mov    0x48(%esp),%edi
    29c0:	65 a1 14 00 00 00    	mov    %gs:0x14,%eax
    29c6:	89 44 24 24          	mov    %eax,0x24(%esp)
    29ca:	31 c0                	xor    %eax,%eax
    29cc:	6a 01                	push   $0x1
    29ce:	6a 0d                	push   $0xd
    29d0:	e8 bb e6 ff ff       	call   1090 <signal@plt>
    29d5:	83 c4 08             	add    $0x8,%esp
    29d8:	6a 01                	push   $0x1
    29da:	6a 1d                	push   $0x1d
    29dc:	e8 af e6 ff ff       	call   1090 <signal@plt>
    29e1:	83 c4 08             	add    $0x8,%esp
    29e4:	6a 01                	push   $0x1
    29e6:	6a 1d                	push   $0x1d
    29e8:	e8 a3 e6 ff ff       	call   1090 <signal@plt>
    29ed:	83 c4 0c             	add    $0xc,%esp
    29f0:	6a 00                	push   $0x0
    29f2:	6a 01                	push   $0x1
    29f4:	6a 02                	push   $0x2
    29f6:	e8 b5 e7 ff ff       	call   11b0 <socket@plt>
    29fb:	83 c4 10             	add    $0x10,%esp
    29fe:	85 c0                	test   %eax,%eax
    2a00:	0f 88 ac 00 00 00    	js     2ab2 <init_driver+0x108>
    2a06:	89 c6                	mov    %eax,%esi
    2a08:	83 ec 0c             	sub    $0xc,%esp
    2a0b:	8d 83 ac d9 ff ff    	lea    -0x2654(%ebx),%eax
    2a11:	50                   	push   %eax
    2a12:	e8 b9 e7 ff ff       	call   11d0 <gethostbyname@plt>
    2a17:	83 c4 10             	add    $0x10,%esp
    2a1a:	85 c0                	test   %eax,%eax
    2a1c:	0f 84 db 00 00 00    	je     2afd <init_driver+0x153>
    2a22:	8d 6c 24 0c          	lea    0xc(%esp),%ebp
    2a26:	c7 44 24 0c 00 00 00 	movl   $0x0,0xc(%esp)
    2a2d:	00 
    2a2e:	c7 44 24 10 00 00 00 	movl   $0x0,0x10(%esp)
    2a35:	00 
    2a36:	c7 44 24 14 00 00 00 	movl   $0x0,0x14(%esp)
    2a3d:	00 
    2a3e:	c7 44 24 18 00 00 00 	movl   $0x0,0x18(%esp)
    2a45:	00 
    2a46:	66 c7 44 24 0c 02 00 	movw   $0x2,0xc(%esp)
    2a4d:	6a 0c                	push   $0xc
    2a4f:	ff 70 0c             	push   0xc(%eax)
    2a52:	8b 40 10             	mov    0x10(%eax),%eax
    2a55:	ff 30                	push   (%eax)
    2a57:	8d 44 24 1c          	lea    0x1c(%esp),%eax
    2a5b:	50                   	push   %eax
    2a5c:	e8 bf e6 ff ff       	call   1120 <__memmove_chk@plt>
    2a61:	66 c7 44 24 1e 43 31 	movw   $0x3143,0x1e(%esp)
    2a68:	83 c4 0c             	add    $0xc,%esp
    2a6b:	6a 10                	push   $0x10
    2a6d:	55                   	push   %ebp
    2a6e:	56                   	push   %esi
    2a6f:	e8 7c e7 ff ff       	call   11f0 <connect@plt>
    2a74:	83 c4 10             	add    $0x10,%esp
    2a77:	85 c0                	test   %eax,%eax
    2a79:	0f 88 ea 00 00 00    	js     2b69 <init_driver+0x1bf>
    2a7f:	83 ec 0c             	sub    $0xc,%esp
    2a82:	56                   	push   %esi
    2a83:	e8 78 e7 ff ff       	call   1200 <close@plt>
    2a88:	66 c7 07 4f 4b       	movw   $0x4b4f,(%edi)
    2a8d:	c6 47 02 00          	movb   $0x0,0x2(%edi)
    2a91:	83 c4 10             	add    $0x10,%esp
    2a94:	b8 00 00 00 00       	mov    $0x0,%eax
    2a99:	8b 54 24 1c          	mov    0x1c(%esp),%edx
    2a9d:	65 2b 15 14 00 00 00 	sub    %gs:0x14,%edx
    2aa4:	0f 85 f0 00 00 00    	jne    2b9a <init_driver+0x1f0>
    2aaa:	83 c4 2c             	add    $0x2c,%esp
    2aad:	5b                   	pop    %ebx
    2aae:	5e                   	pop    %esi
    2aaf:	5f                   	pop    %edi
    2ab0:	5d                   	pop    %ebp
    2ab1:	c3                   	ret    
    2ab2:	c7 07 45 72 72 6f    	movl   $0x6f727245,(%edi)
    2ab8:	c7 47 04 72 3a 20 43 	movl   $0x43203a72,0x4(%edi)
    2abf:	c7 47 08 6c 69 65 6e 	movl   $0x6e65696c,0x8(%edi)
    2ac6:	c7 47 0c 74 20 75 6e 	movl   $0x6e752074,0xc(%edi)
    2acd:	c7 47 10 61 62 6c 65 	movl   $0x656c6261,0x10(%edi)
    2ad4:	c7 47 14 20 74 6f 20 	movl   $0x206f7420,0x14(%edi)
    2adb:	c7 47 18 63 72 65 61 	movl   $0x61657263,0x18(%edi)
    2ae2:	c7 47 1c 74 65 20 73 	movl   $0x73206574,0x1c(%edi)
    2ae9:	c7 47 20 6f 63 6b 65 	movl   $0x656b636f,0x20(%edi)
    2af0:	66 c7 47 24 74 00    	movw   $0x74,0x24(%edi)
    2af6:	b8 ff ff ff ff       	mov    $0xffffffff,%eax
    2afb:	eb 9c                	jmp    2a99 <init_driver+0xef>
    2afd:	c7 07 45 72 72 6f    	movl   $0x6f727245,(%edi)
    2b03:	c7 47 04 72 3a 20 44 	movl   $0x44203a72,0x4(%edi)
    2b0a:	c7 47 08 4e 53 20 69 	movl   $0x6920534e,0x8(%edi)
    2b11:	c7 47 0c 73 20 75 6e 	movl   $0x6e752073,0xc(%edi)
    2b18:	c7 47 10 61 62 6c 65 	movl   $0x656c6261,0x10(%edi)
    2b1f:	c7 47 14 20 74 6f 20 	movl   $0x206f7420,0x14(%edi)
    2b26:	c7 47 18 72 65 73 6f 	movl   $0x6f736572,0x18(%edi)
    2b2d:	c7 47 1c 6c 76 65 20 	movl   $0x2065766c,0x1c(%edi)
    2b34:	c7 47 20 73 65 72 76 	movl   $0x76726573,0x20(%edi)
    2b3b:	c7 47 24 65 72 20 61 	movl   $0x61207265,0x24(%edi)
    2b42:	c7 47 28 64 64 72 65 	movl   $0x65726464,0x28(%edi)
    2b49:	66 c7 47 2c 73 73    	movw   $0x7373,0x2c(%edi)
    2b4f:	c6 47 2e 00          	movb   $0x0,0x2e(%edi)
    2b53:	83 ec 0c             	sub    $0xc,%esp
    2b56:	56                   	push   %esi
    2b57:	e8 a4 e6 ff ff       	call   1200 <close@plt>
    2b5c:	83 c4 10             	add    $0x10,%esp
    2b5f:	b8 ff ff ff ff       	mov    $0xffffffff,%eax
    2b64:	e9 30 ff ff ff       	jmp    2a99 <init_driver+0xef>
    2b69:	83 ec 0c             	sub    $0xc,%esp
    2b6c:	8d 83 ac d9 ff ff    	lea    -0x2654(%ebx),%eax
    2b72:	50                   	push   %eax
    2b73:	8d 83 68 d9 ff ff    	lea    -0x2698(%ebx),%eax
    2b79:	50                   	push   %eax
    2b7a:	6a ff                	push   $0xffffffff
    2b7c:	6a 01                	push   $0x1
    2b7e:	57                   	push   %edi
    2b7f:	e8 9c e6 ff ff       	call   1220 <__sprintf_chk@plt>
    2b84:	83 c4 14             	add    $0x14,%esp
    2b87:	56                   	push   %esi
    2b88:	e8 73 e6 ff ff       	call   1200 <close@plt>
    2b8d:	83 c4 10             	add    $0x10,%esp
    2b90:	b8 ff ff ff ff       	mov    $0xffffffff,%eax
    2b95:	e9 ff fe ff ff       	jmp    2a99 <init_driver+0xef>
    2b9a:	e8 91 00 00 00       	call   2c30 <__stack_chk_fail_local>

00002b9f <driver_post>:
    2b9f:	56                   	push   %esi
    2ba0:	53                   	push   %ebx
    2ba1:	83 ec 04             	sub    $0x4,%esp
    2ba4:	e8 c7 e6 ff ff       	call   1270 <__x86.get_pc_thunk.bx>
    2ba9:	81 c3 ab 33 00 00    	add    $0x33ab,%ebx
    2baf:	8b 54 24 10          	mov    0x10(%esp),%edx
    2bb3:	8b 44 24 18          	mov    0x18(%esp),%eax
    2bb7:	8b 74 24 1c          	mov    0x1c(%esp),%esi
    2bbb:	85 c0                	test   %eax,%eax
    2bbd:	75 18                	jne    2bd7 <driver_post+0x38>
    2bbf:	85 d2                	test   %edx,%edx
    2bc1:	74 05                	je     2bc8 <driver_post+0x29>
    2bc3:	80 3a 00             	cmpb   $0x0,(%edx)
    2bc6:	75 37                	jne    2bff <driver_post+0x60>
    2bc8:	66 c7 06 4f 4b       	movw   $0x4b4f,(%esi)
    2bcd:	c6 46 02 00          	movb   $0x0,0x2(%esi)
    2bd1:	83 c4 04             	add    $0x4,%esp
    2bd4:	5b                   	pop    %ebx
    2bd5:	5e                   	pop    %esi
    2bd6:	c3                   	ret    
    2bd7:	83 ec 04             	sub    $0x4,%esp
    2bda:	ff 74 24 18          	push   0x18(%esp)
    2bde:	8d 83 be d9 ff ff    	lea    -0x2642(%ebx),%eax
    2be4:	50                   	push   %eax
    2be5:	6a 01                	push   $0x1
    2be7:	e8 b4 e5 ff ff       	call   11a0 <__printf_chk@plt>
    2bec:	66 c7 06 4f 4b       	movw   $0x4b4f,(%esi)
    2bf1:	c6 46 02 00          	movb   $0x0,0x2(%esi)
    2bf5:	83 c4 10             	add    $0x10,%esp
    2bf8:	b8 00 00 00 00       	mov    $0x0,%eax
    2bfd:	eb d2                	jmp    2bd1 <driver_post+0x32>
    2bff:	83 ec 04             	sub    $0x4,%esp
    2c02:	56                   	push   %esi
    2c03:	ff 74 24 1c          	push   0x1c(%esp)
    2c07:	8d 83 d5 d9 ff ff    	lea    -0x262b(%ebx),%eax
    2c0d:	50                   	push   %eax
    2c0e:	52                   	push   %edx
    2c0f:	8d 83 e3 d9 ff ff    	lea    -0x261d(%ebx),%eax
    2c15:	50                   	push   %eax
    2c16:	68 31 43 00 00       	push   $0x4331
    2c1b:	8d 83 ac d9 ff ff    	lea    -0x2654(%ebx),%eax
    2c21:	50                   	push   %eax
    2c22:	e8 5e f5 ff ff       	call   2185 <submitr>
    2c27:	83 c4 20             	add    $0x20,%esp
    2c2a:	eb a5                	jmp    2bd1 <driver_post+0x32>
    2c2c:	66 90                	xchg   %ax,%ax
    2c2e:	66 90                	xchg   %ax,%ax

00002c30 <__stack_chk_fail_local>:
    2c30:	f3 0f 1e fb          	endbr32 
    2c34:	53                   	push   %ebx
    2c35:	e8 36 e6 ff ff       	call   1270 <__x86.get_pc_thunk.bx>
    2c3a:	81 c3 1a 33 00 00    	add    $0x331a,%ebx
    2c40:	83 ec 08             	sub    $0x8,%esp
    2c43:	e8 78 e4 ff ff       	call   10c0 <__stack_chk_fail@plt>

Disassembly of section .fini:

00002c48 <_fini>:
    2c48:	f3 0f 1e fb          	endbr32 
    2c4c:	53                   	push   %ebx
    2c4d:	83 ec 08             	sub    $0x8,%esp
    2c50:	e8 1b e6 ff ff       	call   1270 <__x86.get_pc_thunk.bx>
    2c55:	81 c3 ff 32 00 00    	add    $0x32ff,%ebx
    2c5b:	83 c4 08             	add    $0x8,%esp
    2c5e:	5b                   	pop    %ebx
    2c5f:	c3                   	ret    
